ARM GAS  /tmp/ccdAfRG9.s 			page 1


   1              		.cpu cortex-m4
   2              		.arch armv7e-m
   3              		.fpu softvfp
   4              		.eabi_attribute 20, 1
   5              		.eabi_attribute 21, 1
   6              		.eabi_attribute 23, 3
   7              		.eabi_attribute 24, 1
   8              		.eabi_attribute 25, 1
   9              		.eabi_attribute 26, 1
  10              		.eabi_attribute 30, 4
  11              		.eabi_attribute 34, 1
  12              		.eabi_attribute 18, 4
  13              		.file	"bsp_mpu6050.c"
  14              		.text
  15              	.Ltext0:
  16              		.cfi_sections	.debug_frame
  17              		.file 1 "Hardware/Src/bsp_mpu6050.c"
  18              		.section	.rodata.mpu6050_init.str1.1,"aMS",%progbits,1
  19              	.LC0:
  20 0000 72656164 		.ascii	"read success! check value: check = %d\015\012\000"
  20      20737563 
  20      63657373 
  20      21206368 
  20      65636B20 
  21              	.LC1:
  22 0028 77726974 		.ascii	"write success!\015\000"
  22      65207375 
  22      63636573 
  22      73210D00 
  23              		.section	.text.mpu6050_init,"ax",%progbits
  24              		.align	1
  25              		.global	mpu6050_init
  26              		.syntax unified
  27              		.thumb
  28              		.thumb_func
  30              	mpu6050_init:
  31              	.LFB119:
   1:Hardware/Src/bsp_mpu6050.c **** #include <stdio.h>
   2:Hardware/Src/bsp_mpu6050.c **** #include "bsp_mpu6050.h"
   3:Hardware/Src/bsp_mpu6050.c **** 
   4:Hardware/Src/bsp_mpu6050.c **** 
   5:Hardware/Src/bsp_mpu6050.c **** /**
   6:Hardware/Src/bsp_mpu6050.c ****  * @brief 初始化MPU6050，并检查MPU6050工作是否正常
   7:Hardware/Src/bsp_mpu6050.c ****  * 
   8:Hardware/Src/bsp_mpu6050.c ****  */
   9:Hardware/Src/bsp_mpu6050.c **** void mpu6050_init(void)
  10:Hardware/Src/bsp_mpu6050.c **** {
  32              		.loc 1 10 1 view -0
  33              		.cfi_startproc
  34              		@ args = 0, pretend = 0, frame = 24
  35              		@ frame_needed = 0, uses_anonymous_args = 0
  11:Hardware/Src/bsp_mpu6050.c ****     i2c_config();
  36              		.loc 1 11 5 view .LVU1
  10:Hardware/Src/bsp_mpu6050.c ****     i2c_config();
  37              		.loc 1 10 1 is_stmt 0 view .LVU2
  38 0000 7FB5     		push	{r0, r1, r2, r3, r4, r5, r6, lr}
  39              	.LCFI0:
ARM GAS  /tmp/ccdAfRG9.s 			page 2


  40              		.cfi_def_cfa_offset 32
  41              		.cfi_offset 14, -4
  42              		.loc 1 11 5 view .LVU3
  43 0002 FFF7FEFF 		bl	i2c_config
  44              	.LVL0:
  12:Hardware/Src/bsp_mpu6050.c **** 
  13:Hardware/Src/bsp_mpu6050.c ****     // 检查MPU6050是否正常
  14:Hardware/Src/bsp_mpu6050.c ****     uint8_t read_buffer[10];
  45              		.loc 1 14 5 is_stmt 1 view .LVU4
  15:Hardware/Src/bsp_mpu6050.c ****     if (!i2c_buffer_read_timeout(read_buffer, 1, MPU6050_ADDR, WHO_AM_I_REG))
  46              		.loc 1 15 5 view .LVU5
  47              		.loc 1 15 10 is_stmt 0 view .LVU6
  48 0006 7523     		movs	r3, #117
  49 0008 D022     		movs	r2, #208
  50 000a 0121     		movs	r1, #1
  51 000c 6846     		mov	r0, sp
  52 000e FFF7FEFF 		bl	i2c_buffer_read_timeout
  53              	.LVL1:
  54              		.loc 1 15 8 view .LVU7
  55 0012 20B9     		cbnz	r0, .L2
  16:Hardware/Src/bsp_mpu6050.c ****         printf("read success! check value: check = %d\r\n", read_buffer[0]);
  56              		.loc 1 16 9 is_stmt 1 view .LVU8
  57 0014 9DF80010 		ldrb	r1, [sp]	@ zero_extendqisi2
  58 0018 0948     		ldr	r0, .L4
  59 001a FFF7FEFF 		bl	printf
  60              	.LVL2:
  61              	.L2:
  17:Hardware/Src/bsp_mpu6050.c **** 
  18:Hardware/Src/bsp_mpu6050.c ****     delay_1ms(100);
  62              		.loc 1 18 5 view .LVU9
  63 001e 6420     		movs	r0, #100
  64 0020 FFF7FEFF 		bl	delay_1ms
  65              	.LVL3:
  19:Hardware/Src/bsp_mpu6050.c **** 
  20:Hardware/Src/bsp_mpu6050.c ****     uint8_t write_buffer[10];
  66              		.loc 1 20 5 view .LVU10
  21:Hardware/Src/bsp_mpu6050.c ****     if (!i2c_buffer_write_timeout(write_buffer, 1, MPU6050_ADDR, PWR_MGMT_1_REG))
  67              		.loc 1 21 5 view .LVU11
  68              		.loc 1 21 10 is_stmt 0 view .LVU12
  69 0024 6B23     		movs	r3, #107
  70 0026 D022     		movs	r2, #208
  71 0028 0121     		movs	r1, #1
  72 002a 03A8     		add	r0, sp, #12
  73 002c FFF7FEFF 		bl	i2c_buffer_write_timeout
  74              	.LVL4:
  75              		.loc 1 21 8 view .LVU13
  76 0030 10B9     		cbnz	r0, .L1
  22:Hardware/Src/bsp_mpu6050.c ****         printf("write success!\r\n");
  77              		.loc 1 22 9 is_stmt 1 view .LVU14
  78 0032 0448     		ldr	r0, .L4+4
  79 0034 FFF7FEFF 		bl	puts
  80              	.LVL5:
  81              	.L1:
  23:Hardware/Src/bsp_mpu6050.c **** }...
  82              		.loc 1 23 1 is_stmt 0 view .LVU15
  83 0038 07B0     		add	sp, sp, #28
  84              	.LCFI1:
ARM GAS  /tmp/ccdAfRG9.s 			page 3


  85              		.cfi_def_cfa_offset 4
  86              		@ sp needed
  87 003a 5DF804FB 		ldr	pc, [sp], #4
  88              	.L5:
  89 003e 00BF     		.align	2
  90              	.L4:
  91 0040 00000000 		.word	.LC0
  92 0044 28000000 		.word	.LC1
  93              		.cfi_endproc
  94              	.LFE119:
  96              		.text
  97              	.Letext0:
  98              		.file 2 "/usr/arm-none-eabi/include/machine/_default_types.h"
  99              		.file 3 "/usr/arm-none-eabi/include/sys/_stdint.h"
 100              		.file 4 "Drivers/CMSIS/Include/gd32f4xx.h"
 101              		.file 5 "Core/Inc/bsp_i2c.h"
 102              		.file 6 "/usr/arm-none-eabi/include/stdio.h"
 103              		.file 7 "Core/Inc/systick.h"
 104              		.file 8 "<built-in>"
ARM GAS  /tmp/ccdAfRG9.s 			page 4


DEFINED SYMBOLS
                            *ABS*:0000000000000000 bsp_mpu6050.c
     /tmp/ccdAfRG9.s:24     .text.mpu6050_init:0000000000000000 $t
     /tmp/ccdAfRG9.s:30     .text.mpu6050_init:0000000000000000 mpu6050_init
     /tmp/ccdAfRG9.s:91     .text.mpu6050_init:0000000000000040 $d

UNDEFINED SYMBOLS
i2c_config
i2c_buffer_read_timeout
printf
delay_1ms
i2c_buffer_write_timeout
puts
