ARM GAS  /tmp/ccKKjJpT.s 			page 1


   1              		.cpu cortex-m4
   2              		.arch armv7e-m
   3              		.fpu softvfp
   4              		.eabi_attribute 20, 1
   5              		.eabi_attribute 21, 1
   6              		.eabi_attribute 23, 3
   7              		.eabi_attribute 24, 1
   8              		.eabi_attribute 25, 1
   9              		.eabi_attribute 26, 1
  10              		.eabi_attribute 30, 4
  11              		.eabi_attribute 34, 1
  12              		.eabi_attribute 18, 4
  13              		.file	"gd32f4xx_tli.c"
  14              		.text
  15              	.Ltext0:
  16              		.cfi_sections	.debug_frame
  17              		.file 1 "Drivers/GD32F4xx_standard_peripheral/Source/gd32f4xx_tli.c"
  18              		.section	.text.tli_deinit,"ax",%progbits
  19              		.align	1
  20              		.global	tli_deinit
  21              		.syntax unified
  22              		.thumb
  23              		.thumb_func
  25              	tli_deinit:
  26              	.LFB116:
   1:Drivers/GD32F4xx_standard_peripheral/Source/gd32f4xx_tli.c **** /*!
   2:Drivers/GD32F4xx_standard_peripheral/Source/gd32f4xx_tli.c ****     \file    gd32f4xx_tli.c
   3:Drivers/GD32F4xx_standard_peripheral/Source/gd32f4xx_tli.c ****     \brief   TLI driver
   4:Drivers/GD32F4xx_standard_peripheral/Source/gd32f4xx_tli.c **** 
   5:Drivers/GD32F4xx_standard_peripheral/Source/gd32f4xx_tli.c ****     \version 2016-08-15, V1.0.0, firmware for GD32F4xx
   6:Drivers/GD32F4xx_standard_peripheral/Source/gd32f4xx_tli.c ****     \version 2018-12-12, V2.0.0, firmware for GD32F4xx
   7:Drivers/GD32F4xx_standard_peripheral/Source/gd32f4xx_tli.c ****     \version 2020-09-30, V2.1.0, firmware for GD32F4xx
   8:Drivers/GD32F4xx_standard_peripheral/Source/gd32f4xx_tli.c ****     \version 2022-03-09, V3.0.0, firmware for GD32F4xx
   9:Drivers/GD32F4xx_standard_peripheral/Source/gd32f4xx_tli.c **** */
  10:Drivers/GD32F4xx_standard_peripheral/Source/gd32f4xx_tli.c **** 
  11:Drivers/GD32F4xx_standard_peripheral/Source/gd32f4xx_tli.c **** /*
  12:Drivers/GD32F4xx_standard_peripheral/Source/gd32f4xx_tli.c ****     Copyright (c) 2022, GigaDevice Semiconductor Inc.
  13:Drivers/GD32F4xx_standard_peripheral/Source/gd32f4xx_tli.c **** 
  14:Drivers/GD32F4xx_standard_peripheral/Source/gd32f4xx_tli.c ****     Redistribution and use in source and binary forms, with or without modification,
  15:Drivers/GD32F4xx_standard_peripheral/Source/gd32f4xx_tli.c **** are permitted provided that the following conditions are met:
  16:Drivers/GD32F4xx_standard_peripheral/Source/gd32f4xx_tli.c **** 
  17:Drivers/GD32F4xx_standard_peripheral/Source/gd32f4xx_tli.c ****     1. Redistributions of source code must retain the above copyright notice, this
  18:Drivers/GD32F4xx_standard_peripheral/Source/gd32f4xx_tli.c ****        list of conditions and the following disclaimer.
  19:Drivers/GD32F4xx_standard_peripheral/Source/gd32f4xx_tli.c ****     2. Redistributions in binary form must reproduce the above copyright notice,
  20:Drivers/GD32F4xx_standard_peripheral/Source/gd32f4xx_tli.c ****        this list of conditions and the following disclaimer in the documentation
  21:Drivers/GD32F4xx_standard_peripheral/Source/gd32f4xx_tli.c ****        and/or other materials provided with the distribution.
  22:Drivers/GD32F4xx_standard_peripheral/Source/gd32f4xx_tli.c ****     3. Neither the name of the copyright holder nor the names of its contributors
  23:Drivers/GD32F4xx_standard_peripheral/Source/gd32f4xx_tli.c ****        may be used to endorse or promote products derived from this software without
  24:Drivers/GD32F4xx_standard_peripheral/Source/gd32f4xx_tli.c ****        specific prior written permission.
  25:Drivers/GD32F4xx_standard_peripheral/Source/gd32f4xx_tli.c **** 
  26:Drivers/GD32F4xx_standard_peripheral/Source/gd32f4xx_tli.c ****     THIS SOFTWARE IS PROVIDED BY THE COPYRIGHT HOLDERS AND CONTRIBUTORS "AS IS"
  27:Drivers/GD32F4xx_standard_peripheral/Source/gd32f4xx_tli.c **** AND ANY EXPRESS OR IMPLIED WARRANTIES, INCLUDING, BUT NOT LIMITED TO, THE IMPLIED
  28:Drivers/GD32F4xx_standard_peripheral/Source/gd32f4xx_tli.c **** WARRANTIES OF MERCHANTABILITY AND FITNESS FOR A PARTICULAR PURPOSE ARE DISCLAIMED.
  29:Drivers/GD32F4xx_standard_peripheral/Source/gd32f4xx_tli.c **** IN NO EVENT SHALL THE COPYRIGHT HOLDER OR CONTRIBUTORS BE LIABLE FOR ANY DIRECT,
  30:Drivers/GD32F4xx_standard_peripheral/Source/gd32f4xx_tli.c **** INDIRECT, INCIDENTAL, SPECIAL, EXEMPLARY, OR CONSEQUENTIAL DAMAGES (INCLUDING, BUT
  31:Drivers/GD32F4xx_standard_peripheral/Source/gd32f4xx_tli.c **** NOT LIMITED TO, PROCUREMENT OF SUBSTITUTE GOODS OR SERVICES; LOSS OF USE, DATA, OR
  32:Drivers/GD32F4xx_standard_peripheral/Source/gd32f4xx_tli.c **** PROFITS; OR BUSINESS INTERRUPTION) HOWEVER CAUSED AND ON ANY THEORY OF LIABILITY,
ARM GAS  /tmp/ccKKjJpT.s 			page 2


  33:Drivers/GD32F4xx_standard_peripheral/Source/gd32f4xx_tli.c **** WHETHER IN CONTRACT, STRICT LIABILITY, OR TORT (INCLUDING NEGLIGENCE OR OTHERWISE)
  34:Drivers/GD32F4xx_standard_peripheral/Source/gd32f4xx_tli.c **** ARISING IN ANY WAY OUT OF THE USE OF THIS SOFTWARE, EVEN IF ADVISED OF THE POSSIBILITY
  35:Drivers/GD32F4xx_standard_peripheral/Source/gd32f4xx_tli.c **** OF SUCH DAMAGE.
  36:Drivers/GD32F4xx_standard_peripheral/Source/gd32f4xx_tli.c **** */
  37:Drivers/GD32F4xx_standard_peripheral/Source/gd32f4xx_tli.c **** 
  38:Drivers/GD32F4xx_standard_peripheral/Source/gd32f4xx_tli.c **** #include "gd32f4xx_tli.h"
  39:Drivers/GD32F4xx_standard_peripheral/Source/gd32f4xx_tli.c **** 
  40:Drivers/GD32F4xx_standard_peripheral/Source/gd32f4xx_tli.c **** #define TLI_DEFAULT_VALUE   0x00000000U
  41:Drivers/GD32F4xx_standard_peripheral/Source/gd32f4xx_tli.c **** #define TLI_OPAQUE_VALUE    0x000000FFU
  42:Drivers/GD32F4xx_standard_peripheral/Source/gd32f4xx_tli.c **** 
  43:Drivers/GD32F4xx_standard_peripheral/Source/gd32f4xx_tli.c **** /*!
  44:Drivers/GD32F4xx_standard_peripheral/Source/gd32f4xx_tli.c ****     \brief    deinitialize TLI registers
  45:Drivers/GD32F4xx_standard_peripheral/Source/gd32f4xx_tli.c ****     \param[in]  none
  46:Drivers/GD32F4xx_standard_peripheral/Source/gd32f4xx_tli.c ****     \param[out] none
  47:Drivers/GD32F4xx_standard_peripheral/Source/gd32f4xx_tli.c ****     \retval     none
  48:Drivers/GD32F4xx_standard_peripheral/Source/gd32f4xx_tli.c **** */
  49:Drivers/GD32F4xx_standard_peripheral/Source/gd32f4xx_tli.c **** void tli_deinit(void)
  50:Drivers/GD32F4xx_standard_peripheral/Source/gd32f4xx_tli.c **** {
  27              		.loc 1 50 1 view -0
  28              		.cfi_startproc
  29              		@ args = 0, pretend = 0, frame = 0
  30              		@ frame_needed = 0, uses_anonymous_args = 0
  51:Drivers/GD32F4xx_standard_peripheral/Source/gd32f4xx_tli.c ****     rcu_periph_reset_enable(RCU_TLIRST);
  31              		.loc 1 51 5 view .LVU1
  50:Drivers/GD32F4xx_standard_peripheral/Source/gd32f4xx_tli.c ****     rcu_periph_reset_enable(RCU_TLIRST);
  32              		.loc 1 50 1 is_stmt 0 view .LVU2
  33 0000 08B5     		push	{r3, lr}
  34              	.LCFI0:
  35              		.cfi_def_cfa_offset 8
  36              		.cfi_offset 3, -8
  37              		.cfi_offset 14, -4
  38              		.loc 1 51 5 view .LVU3
  39 0002 40F61A10 		movw	r0, #2330
  40 0006 FFF7FEFF 		bl	rcu_periph_reset_enable
  41              	.LVL0:
  52:Drivers/GD32F4xx_standard_peripheral/Source/gd32f4xx_tli.c ****     rcu_periph_reset_disable(RCU_TLIRST);
  42              		.loc 1 52 5 is_stmt 1 view .LVU4
  53:Drivers/GD32F4xx_standard_peripheral/Source/gd32f4xx_tli.c **** }
  43              		.loc 1 53 1 is_stmt 0 view .LVU5
  44 000a BDE80840 		pop	{r3, lr}
  45              	.LCFI1:
  46              		.cfi_restore 14
  47              		.cfi_restore 3
  48              		.cfi_def_cfa_offset 0
  52:Drivers/GD32F4xx_standard_peripheral/Source/gd32f4xx_tli.c ****     rcu_periph_reset_disable(RCU_TLIRST);
  49              		.loc 1 52 5 view .LVU6
  50 000e 40F61A10 		movw	r0, #2330
  51 0012 FFF7FEBF 		b	rcu_periph_reset_disable
  52              	.LVL1:
  53              		.cfi_endproc
  54              	.LFE116:
  56              		.section	.text.tli_struct_para_init,"ax",%progbits
  57              		.align	1
  58              		.global	tli_struct_para_init
  59              		.syntax unified
  60              		.thumb
  61              		.thumb_func
ARM GAS  /tmp/ccKKjJpT.s 			page 3


  63              	tli_struct_para_init:
  64              	.LVL2:
  65              	.LFB117:
  54:Drivers/GD32F4xx_standard_peripheral/Source/gd32f4xx_tli.c **** 
  55:Drivers/GD32F4xx_standard_peripheral/Source/gd32f4xx_tli.c **** /*!
  56:Drivers/GD32F4xx_standard_peripheral/Source/gd32f4xx_tli.c ****     \brief    initialize the parameters of TLI parameter structure with the default values, it is s
  57:Drivers/GD32F4xx_standard_peripheral/Source/gd32f4xx_tli.c ****                 that call this function after a tli_parameter_struct structure is defined
  58:Drivers/GD32F4xx_standard_peripheral/Source/gd32f4xx_tli.c ****     \param[in]  none
  59:Drivers/GD32F4xx_standard_peripheral/Source/gd32f4xx_tli.c ****     \param[out] tli_struct: the data needed to initialize TLI
  60:Drivers/GD32F4xx_standard_peripheral/Source/gd32f4xx_tli.c ****                   synpsz_vpsz: size of the vertical synchronous pulse
  61:Drivers/GD32F4xx_standard_peripheral/Source/gd32f4xx_tli.c ****                   synpsz_hpsz: size of the horizontal synchronous pulse
  62:Drivers/GD32F4xx_standard_peripheral/Source/gd32f4xx_tli.c ****                   backpsz_vbpsz: size of the vertical back porch plus synchronous pulse
  63:Drivers/GD32F4xx_standard_peripheral/Source/gd32f4xx_tli.c ****                   backpsz_hbpsz: size of the horizontal back porch plus synchronous pulse
  64:Drivers/GD32F4xx_standard_peripheral/Source/gd32f4xx_tli.c ****                   activesz_vasz: size of the vertical active area width plus back porch and synchro
  65:Drivers/GD32F4xx_standard_peripheral/Source/gd32f4xx_tli.c ****                   activesz_hasz: size of the horizontal active area width plus back porch and synch
  66:Drivers/GD32F4xx_standard_peripheral/Source/gd32f4xx_tli.c ****                   totalsz_vtsz: vertical total size of the display, including active area, back por
  67:Drivers/GD32F4xx_standard_peripheral/Source/gd32f4xx_tli.c ****                   totalsz_htsz: vorizontal total size of the display, including active area, back p
  68:Drivers/GD32F4xx_standard_peripheral/Source/gd32f4xx_tli.c ****                   backcolor_red: background value red
  69:Drivers/GD32F4xx_standard_peripheral/Source/gd32f4xx_tli.c ****                   backcolor_green: background value green
  70:Drivers/GD32F4xx_standard_peripheral/Source/gd32f4xx_tli.c ****                   backcolor_blue: background value blue
  71:Drivers/GD32F4xx_standard_peripheral/Source/gd32f4xx_tli.c ****                   signalpolarity_hs: TLI_HSYN_ACTLIVE_LOW,TLI_HSYN_ACTLIVE_HIGHT
  72:Drivers/GD32F4xx_standard_peripheral/Source/gd32f4xx_tli.c ****                   signalpolarity_vs: TLI_VSYN_ACTLIVE_LOW,TLI_VSYN_ACTLIVE_HIGHT
  73:Drivers/GD32F4xx_standard_peripheral/Source/gd32f4xx_tli.c ****                   signalpolarity_de: TLI_DE_ACTLIVE_LOW,TLI_DE_ACTLIVE_HIGHT
  74:Drivers/GD32F4xx_standard_peripheral/Source/gd32f4xx_tli.c ****                   signalpolarity_pixelck: TLI_PIXEL_CLOCK_TLI,TLI_PIXEL_CLOCK_INVERTEDTLI
  75:Drivers/GD32F4xx_standard_peripheral/Source/gd32f4xx_tli.c ****     \retval     none
  76:Drivers/GD32F4xx_standard_peripheral/Source/gd32f4xx_tli.c **** */
  77:Drivers/GD32F4xx_standard_peripheral/Source/gd32f4xx_tli.c **** void tli_struct_para_init(tli_parameter_struct *tli_struct)
  78:Drivers/GD32F4xx_standard_peripheral/Source/gd32f4xx_tli.c **** {
  66              		.loc 1 78 1 is_stmt 1 view -0
  67              		.cfi_startproc
  68              		@ args = 0, pretend = 0, frame = 0
  69              		@ frame_needed = 0, uses_anonymous_args = 0
  70              		@ link register save eliminated.
  79:Drivers/GD32F4xx_standard_peripheral/Source/gd32f4xx_tli.c ****     /* initialize the struct parameters with default values */
  80:Drivers/GD32F4xx_standard_peripheral/Source/gd32f4xx_tli.c ****     tli_struct->synpsz_vpsz = TLI_DEFAULT_VALUE;
  71              		.loc 1 80 5 view .LVU8
  81:Drivers/GD32F4xx_standard_peripheral/Source/gd32f4xx_tli.c ****     tli_struct->synpsz_hpsz = TLI_DEFAULT_VALUE;
  72              		.loc 1 81 5 view .LVU9
  82:Drivers/GD32F4xx_standard_peripheral/Source/gd32f4xx_tli.c ****     tli_struct->backpsz_vbpsz = TLI_DEFAULT_VALUE;
  73              		.loc 1 82 5 view .LVU10
  83:Drivers/GD32F4xx_standard_peripheral/Source/gd32f4xx_tli.c ****     tli_struct->backpsz_hbpsz = TLI_DEFAULT_VALUE;
  74              		.loc 1 83 5 view .LVU11
  84:Drivers/GD32F4xx_standard_peripheral/Source/gd32f4xx_tli.c ****     tli_struct->activesz_vasz = TLI_DEFAULT_VALUE;
  75              		.loc 1 84 5 view .LVU12
  85:Drivers/GD32F4xx_standard_peripheral/Source/gd32f4xx_tli.c ****     tli_struct->activesz_hasz = TLI_DEFAULT_VALUE;
  76              		.loc 1 85 5 view .LVU13
  86:Drivers/GD32F4xx_standard_peripheral/Source/gd32f4xx_tli.c ****     tli_struct->totalsz_vtsz = TLI_DEFAULT_VALUE;
  77              		.loc 1 86 5 view .LVU14
  87:Drivers/GD32F4xx_standard_peripheral/Source/gd32f4xx_tli.c ****     tli_struct->totalsz_htsz = TLI_DEFAULT_VALUE;
  78              		.loc 1 87 5 view .LVU15
  88:Drivers/GD32F4xx_standard_peripheral/Source/gd32f4xx_tli.c ****     tli_struct->backcolor_red = TLI_DEFAULT_VALUE;
  79              		.loc 1 88 5 view .LVU16
  89:Drivers/GD32F4xx_standard_peripheral/Source/gd32f4xx_tli.c ****     tli_struct->backcolor_green = TLI_DEFAULT_VALUE;
  80              		.loc 1 89 5 view .LVU17
  90:Drivers/GD32F4xx_standard_peripheral/Source/gd32f4xx_tli.c ****     tli_struct->backcolor_blue = TLI_DEFAULT_VALUE;
  81              		.loc 1 90 5 view .LVU18
  91:Drivers/GD32F4xx_standard_peripheral/Source/gd32f4xx_tli.c ****     tli_struct->signalpolarity_hs = TLI_HSYN_ACTLIVE_LOW;
ARM GAS  /tmp/ccKKjJpT.s 			page 4


  82              		.loc 1 91 5 view .LVU19
  92:Drivers/GD32F4xx_standard_peripheral/Source/gd32f4xx_tli.c ****     tli_struct->signalpolarity_vs = TLI_VSYN_ACTLIVE_LOW;
  83              		.loc 1 92 5 view .LVU20
  93:Drivers/GD32F4xx_standard_peripheral/Source/gd32f4xx_tli.c ****     tli_struct->signalpolarity_de = TLI_DE_ACTLIVE_LOW;
  84              		.loc 1 93 5 view .LVU21
  94:Drivers/GD32F4xx_standard_peripheral/Source/gd32f4xx_tli.c ****     tli_struct->signalpolarity_pixelck = TLI_PIXEL_CLOCK_TLI;
  85              		.loc 1 94 5 view .LVU22
  80:Drivers/GD32F4xx_standard_peripheral/Source/gd32f4xx_tli.c ****     tli_struct->synpsz_hpsz = TLI_DEFAULT_VALUE;
  86              		.loc 1 80 29 is_stmt 0 view .LVU23
  87 0000 0023     		movs	r3, #0
  82:Drivers/GD32F4xx_standard_peripheral/Source/gd32f4xx_tli.c ****     tli_struct->backpsz_hbpsz = TLI_DEFAULT_VALUE;
  88              		.loc 1 82 31 view .LVU24
  89 0002 C0E90033 		strd	r3, r3, [r0]
  85:Drivers/GD32F4xx_standard_peripheral/Source/gd32f4xx_tli.c ****     tli_struct->totalsz_vtsz = TLI_DEFAULT_VALUE;
  90              		.loc 1 85 31 view .LVU25
  91 0006 C0E90233 		strd	r3, r3, [r0, #8]
  87:Drivers/GD32F4xx_standard_peripheral/Source/gd32f4xx_tli.c ****     tli_struct->backcolor_red = TLI_DEFAULT_VALUE;
  92              		.loc 1 87 30 view .LVU26
  93 000a C0E90433 		strd	r3, r3, [r0, #16]
  89:Drivers/GD32F4xx_standard_peripheral/Source/gd32f4xx_tli.c ****     tli_struct->backcolor_blue = TLI_DEFAULT_VALUE;
  94              		.loc 1 89 33 view .LVU27
  95 000e C0E90633 		strd	r3, r3, [r0, #24]
  91:Drivers/GD32F4xx_standard_peripheral/Source/gd32f4xx_tli.c ****     tli_struct->signalpolarity_vs = TLI_VSYN_ACTLIVE_LOW;
  96              		.loc 1 91 35 view .LVU28
  97 0012 C0E90833 		strd	r3, r3, [r0, #32]
  93:Drivers/GD32F4xx_standard_peripheral/Source/gd32f4xx_tli.c ****     tli_struct->signalpolarity_pixelck = TLI_PIXEL_CLOCK_TLI;
  98              		.loc 1 93 35 view .LVU29
  99 0016 C0E90A33 		strd	r3, r3, [r0, #40]
 100              		.loc 1 94 40 view .LVU30
 101 001a 0363     		str	r3, [r0, #48]
  95:Drivers/GD32F4xx_standard_peripheral/Source/gd32f4xx_tli.c **** }
 102              		.loc 1 95 1 view .LVU31
 103 001c 7047     		bx	lr
 104              		.cfi_endproc
 105              	.LFE117:
 107              		.section	.text.tli_init,"ax",%progbits
 108              		.align	1
 109              		.global	tli_init
 110              		.syntax unified
 111              		.thumb
 112              		.thumb_func
 114              	tli_init:
 115              	.LVL3:
 116              	.LFB118:
  96:Drivers/GD32F4xx_standard_peripheral/Source/gd32f4xx_tli.c **** 
  97:Drivers/GD32F4xx_standard_peripheral/Source/gd32f4xx_tli.c **** /*!
  98:Drivers/GD32F4xx_standard_peripheral/Source/gd32f4xx_tli.c ****     \brief    initialize TLI display timing parameters
  99:Drivers/GD32F4xx_standard_peripheral/Source/gd32f4xx_tli.c ****     \param[in]  tli_struct: the data needed to initialize TLI
 100:Drivers/GD32F4xx_standard_peripheral/Source/gd32f4xx_tli.c ****                   synpsz_vpsz: size of the vertical synchronous pulse
 101:Drivers/GD32F4xx_standard_peripheral/Source/gd32f4xx_tli.c ****                   synpsz_hpsz: size of the horizontal synchronous pulse
 102:Drivers/GD32F4xx_standard_peripheral/Source/gd32f4xx_tli.c ****                   backpsz_vbpsz: size of the vertical back porch plus synchronous pulse
 103:Drivers/GD32F4xx_standard_peripheral/Source/gd32f4xx_tli.c ****                   backpsz_hbpsz: size of the horizontal back porch plus synchronous pulse
 104:Drivers/GD32F4xx_standard_peripheral/Source/gd32f4xx_tli.c ****                   activesz_vasz: size of the vertical active area width plus back porch and synchro
 105:Drivers/GD32F4xx_standard_peripheral/Source/gd32f4xx_tli.c ****                   activesz_hasz: size of the horizontal active area width plus back porch and synch
 106:Drivers/GD32F4xx_standard_peripheral/Source/gd32f4xx_tli.c ****                   totalsz_vtsz: vertical total size of the display, including active area, back por
 107:Drivers/GD32F4xx_standard_peripheral/Source/gd32f4xx_tli.c ****                   totalsz_htsz: vorizontal total size of the display, including active area, back p
 108:Drivers/GD32F4xx_standard_peripheral/Source/gd32f4xx_tli.c ****                   backcolor_red: background value red
ARM GAS  /tmp/ccKKjJpT.s 			page 5


 109:Drivers/GD32F4xx_standard_peripheral/Source/gd32f4xx_tli.c ****                   backcolor_green: background value green
 110:Drivers/GD32F4xx_standard_peripheral/Source/gd32f4xx_tli.c ****                   backcolor_blue: background value blue
 111:Drivers/GD32F4xx_standard_peripheral/Source/gd32f4xx_tli.c ****                   signalpolarity_hs: TLI_HSYN_ACTLIVE_LOW,TLI_HSYN_ACTLIVE_HIGHT
 112:Drivers/GD32F4xx_standard_peripheral/Source/gd32f4xx_tli.c ****                   signalpolarity_vs: TLI_VSYN_ACTLIVE_LOW,TLI_VSYN_ACTLIVE_HIGHT
 113:Drivers/GD32F4xx_standard_peripheral/Source/gd32f4xx_tli.c ****                   signalpolarity_de: TLI_DE_ACTLIVE_LOW,TLI_DE_ACTLIVE_HIGHT
 114:Drivers/GD32F4xx_standard_peripheral/Source/gd32f4xx_tli.c ****                   signalpolarity_pixelck: TLI_PIXEL_CLOCK_TLI,TLI_PIXEL_CLOCK_INVERTEDTLI
 115:Drivers/GD32F4xx_standard_peripheral/Source/gd32f4xx_tli.c ****     \param[out] none
 116:Drivers/GD32F4xx_standard_peripheral/Source/gd32f4xx_tli.c ****     \retval     none
 117:Drivers/GD32F4xx_standard_peripheral/Source/gd32f4xx_tli.c **** */
 118:Drivers/GD32F4xx_standard_peripheral/Source/gd32f4xx_tli.c **** void tli_init(tli_parameter_struct *tli_struct)
 119:Drivers/GD32F4xx_standard_peripheral/Source/gd32f4xx_tli.c **** {
 117              		.loc 1 119 1 is_stmt 1 view -0
 118              		.cfi_startproc
 119              		@ args = 0, pretend = 0, frame = 0
 120              		@ frame_needed = 0, uses_anonymous_args = 0
 120:Drivers/GD32F4xx_standard_peripheral/Source/gd32f4xx_tli.c ****     /* synchronous pulse size configuration */
 121:Drivers/GD32F4xx_standard_peripheral/Source/gd32f4xx_tli.c ****     TLI_SPSZ &= ~(TLI_SPSZ_VPSZ | TLI_SPSZ_HPSZ);
 121              		.loc 1 121 5 view .LVU33
 122 0000 264B     		ldr	r3, .L4
 123 0002 D3F80828 		ldr	r2, [r3, #2056]
 124              		.loc 1 121 14 is_stmt 0 view .LVU34
 125 0006 02F0F022 		and	r2, r2, #-268374016
 119:Drivers/GD32F4xx_standard_peripheral/Source/gd32f4xx_tli.c ****     /* synchronous pulse size configuration */
 126              		.loc 1 119 1 view .LVU35
 127 000a 10B5     		push	{r4, lr}
 128              	.LCFI2:
 129              		.cfi_def_cfa_offset 8
 130              		.cfi_offset 4, -8
 131              		.cfi_offset 14, -4
 132              		.loc 1 121 14 view .LVU36
 133 000c C3F80828 		str	r2, [r3, #2056]
 122:Drivers/GD32F4xx_standard_peripheral/Source/gd32f4xx_tli.c ****     TLI_SPSZ = (uint32_t)((uint32_t)tli_struct->synpsz_vpsz | ((uint32_t)tli_struct->synpsz_hpsz <<
 134              		.loc 1 122 5 is_stmt 1 view .LVU37
 135              		.loc 1 122 16 is_stmt 0 view .LVU38
 136 0010 0268     		ldr	r2, [r0]
 137              		.loc 1 122 14 view .LVU39
 138 0012 C3F80828 		str	r2, [r3, #2056]
 123:Drivers/GD32F4xx_standard_peripheral/Source/gd32f4xx_tli.c ****     /* back-porch size configuration */
 124:Drivers/GD32F4xx_standard_peripheral/Source/gd32f4xx_tli.c ****     TLI_BPSZ &= ~(TLI_BPSZ_VBPSZ | TLI_BPSZ_HBPSZ);
 139              		.loc 1 124 5 is_stmt 1 view .LVU40
 140 0016 D3F80C28 		ldr	r2, [r3, #2060]
 141              		.loc 1 124 14 is_stmt 0 view .LVU41
 142 001a 02F0F022 		and	r2, r2, #-268374016
 143 001e C3F80C28 		str	r2, [r3, #2060]
 125:Drivers/GD32F4xx_standard_peripheral/Source/gd32f4xx_tli.c ****     TLI_BPSZ = (uint32_t)((uint32_t)tli_struct->backpsz_vbpsz | ((uint32_t)tli_struct->backpsz_hbps
 144              		.loc 1 125 5 is_stmt 1 view .LVU42
 145              		.loc 1 125 16 is_stmt 0 view .LVU43
 146 0022 4268     		ldr	r2, [r0, #4]
 147              		.loc 1 125 14 view .LVU44
 148 0024 C3F80C28 		str	r2, [r3, #2060]
 126:Drivers/GD32F4xx_standard_peripheral/Source/gd32f4xx_tli.c ****     /* active size configuration */
 127:Drivers/GD32F4xx_standard_peripheral/Source/gd32f4xx_tli.c ****     TLI_ASZ &= ~(TLI_ASZ_VASZ | TLI_ASZ_HASZ);
 149              		.loc 1 127 5 is_stmt 1 view .LVU45
 150 0028 D3F81028 		ldr	r2, [r3, #2064]
 151              		.loc 1 127 13 is_stmt 0 view .LVU46
 152 002c 02F0F022 		and	r2, r2, #-268374016
 153 0030 C3F81028 		str	r2, [r3, #2064]
ARM GAS  /tmp/ccKKjJpT.s 			page 6


 128:Drivers/GD32F4xx_standard_peripheral/Source/gd32f4xx_tli.c ****     TLI_ASZ = (tli_struct->activesz_vasz | (tli_struct->activesz_hasz << 16U));
 154              		.loc 1 128 5 is_stmt 1 view .LVU47
 155              		.loc 1 128 42 is_stmt 0 view .LVU48
 156 0034 D0E90221 		ldrd	r2, r1, [r0, #8]
 157 0038 42EA0142 		orr	r2, r2, r1, lsl #16
 158              		.loc 1 128 13 view .LVU49
 159 003c C3F81028 		str	r2, [r3, #2064]
 129:Drivers/GD32F4xx_standard_peripheral/Source/gd32f4xx_tli.c ****     /* total size configuration */
 130:Drivers/GD32F4xx_standard_peripheral/Source/gd32f4xx_tli.c ****     TLI_TSZ &= ~(TLI_TSZ_VTSZ | TLI_TSZ_HTSZ);
 160              		.loc 1 130 5 is_stmt 1 view .LVU50
 161 0040 D3F81428 		ldr	r2, [r3, #2068]
 162              		.loc 1 130 13 is_stmt 0 view .LVU51
 163 0044 02F0F022 		and	r2, r2, #-268374016
 164 0048 C3F81428 		str	r2, [r3, #2068]
 131:Drivers/GD32F4xx_standard_peripheral/Source/gd32f4xx_tli.c ****     TLI_TSZ = (tli_struct->totalsz_vtsz | (tli_struct->totalsz_htsz << 16U));
 165              		.loc 1 131 5 is_stmt 1 view .LVU52
 166              		.loc 1 131 41 is_stmt 0 view .LVU53
 167 004c D0E90421 		ldrd	r2, r1, [r0, #16]
 168 0050 42EA0142 		orr	r2, r2, r1, lsl #16
 169              		.loc 1 131 13 view .LVU54
 170 0054 C3F81428 		str	r2, [r3, #2068]
 132:Drivers/GD32F4xx_standard_peripheral/Source/gd32f4xx_tli.c ****     /* background color configuration */
 133:Drivers/GD32F4xx_standard_peripheral/Source/gd32f4xx_tli.c ****     TLI_BGC &= ~(TLI_BGC_BVB | (TLI_BGC_BVG) | (TLI_BGC_BVR));
 171              		.loc 1 133 5 is_stmt 1 view .LVU55
 172 0058 D3F82C28 		ldr	r2, [r3, #2092]
 173              		.loc 1 133 13 is_stmt 0 view .LVU56
 174 005c 02F07F42 		and	r2, r2, #-16777216
 175 0060 C3F82C28 		str	r2, [r3, #2092]
 134:Drivers/GD32F4xx_standard_peripheral/Source/gd32f4xx_tli.c ****     TLI_BGC = (tli_struct->backcolor_blue | (tli_struct->backcolor_green << 8U) | (tli_struct->back
 176              		.loc 1 134 5 is_stmt 1 view .LVU57
 177              		.loc 1 134 110 is_stmt 0 view .LVU58
 178 0064 D0E90621 		ldrd	r2, r1, [r0, #24]
 179 0068 1204     		lsls	r2, r2, #16
 180              		.loc 1 134 81 view .LVU59
 181 006a 42EA0122 		orr	r2, r2, r1, lsl #8
 182 006e 016A     		ldr	r1, [r0, #32]
 183 0070 0A43     		orrs	r2, r2, r1
 184              		.loc 1 134 13 view .LVU60
 185 0072 C3F82C28 		str	r2, [r3, #2092]
 135:Drivers/GD32F4xx_standard_peripheral/Source/gd32f4xx_tli.c ****     TLI_CTL &= ~(TLI_CTL_HPPS | TLI_CTL_VPPS | TLI_CTL_DEPS | TLI_CTL_CLKPS);
 186              		.loc 1 135 5 is_stmt 1 view .LVU61
 187 0076 D3F81828 		ldr	r2, [r3, #2072]
 188              		.loc 1 135 13 is_stmt 0 view .LVU62
 189 007a 22F07042 		bic	r2, r2, #-268435456
 190 007e C3F81828 		str	r2, [r3, #2072]
 136:Drivers/GD32F4xx_standard_peripheral/Source/gd32f4xx_tli.c ****     TLI_CTL |= (tli_struct->signalpolarity_hs | tli_struct->signalpolarity_vs | \
 191              		.loc 1 136 5 is_stmt 1 view .LVU63
 192              		.loc 1 136 47 is_stmt 0 view .LVU64
 193 0082 D0E90924 		ldrd	r2, r4, [r0, #36]
 194              		.loc 1 136 5 view .LVU65
 195 0086 D3F81818 		ldr	r1, [r3, #2072]
 196              		.loc 1 136 47 view .LVU66
 197 008a 2243     		orrs	r2, r2, r4
 198              		.loc 1 136 13 view .LVU67
 199 008c 0A43     		orrs	r2, r2, r1
 200 008e C16A     		ldr	r1, [r0, #44]
 201 0090 0A43     		orrs	r2, r2, r1
ARM GAS  /tmp/ccKKjJpT.s 			page 7


 202 0092 016B     		ldr	r1, [r0, #48]
 203 0094 0A43     		orrs	r2, r2, r1
 204 0096 C3F81828 		str	r2, [r3, #2072]
 137:Drivers/GD32F4xx_standard_peripheral/Source/gd32f4xx_tli.c ****                 tli_struct->signalpolarity_de | tli_struct->signalpolarity_pixelck);
 138:Drivers/GD32F4xx_standard_peripheral/Source/gd32f4xx_tli.c **** 
 139:Drivers/GD32F4xx_standard_peripheral/Source/gd32f4xx_tli.c **** }
 205              		.loc 1 139 1 view .LVU68
 206 009a 10BD     		pop	{r4, pc}
 207              	.L5:
 208              		.align	2
 209              	.L4:
 210 009c 00600140 		.word	1073831936
 211              		.cfi_endproc
 212              	.LFE118:
 214              		.section	.text.tli_dither_config,"ax",%progbits
 215              		.align	1
 216              		.global	tli_dither_config
 217              		.syntax unified
 218              		.thumb
 219              		.thumb_func
 221              	tli_dither_config:
 222              	.LVL4:
 223              	.LFB119:
 140:Drivers/GD32F4xx_standard_peripheral/Source/gd32f4xx_tli.c **** 
 141:Drivers/GD32F4xx_standard_peripheral/Source/gd32f4xx_tli.c **** /*!
 142:Drivers/GD32F4xx_standard_peripheral/Source/gd32f4xx_tli.c ****     \brief    configure TLI dither function
 143:Drivers/GD32F4xx_standard_peripheral/Source/gd32f4xx_tli.c ****     \param[in]  dither_stat
 144:Drivers/GD32F4xx_standard_peripheral/Source/gd32f4xx_tli.c ****                 only one parameter can be selected which is shown as below:
 145:Drivers/GD32F4xx_standard_peripheral/Source/gd32f4xx_tli.c ****       \arg        TLI_DITHER_ENABLE
 146:Drivers/GD32F4xx_standard_peripheral/Source/gd32f4xx_tli.c ****       \arg        TLI_DITHER_DISABLE
 147:Drivers/GD32F4xx_standard_peripheral/Source/gd32f4xx_tli.c ****     \param[out] none
 148:Drivers/GD32F4xx_standard_peripheral/Source/gd32f4xx_tli.c ****     \retval     none
 149:Drivers/GD32F4xx_standard_peripheral/Source/gd32f4xx_tli.c **** */
 150:Drivers/GD32F4xx_standard_peripheral/Source/gd32f4xx_tli.c **** void tli_dither_config(uint8_t dither_stat)
 151:Drivers/GD32F4xx_standard_peripheral/Source/gd32f4xx_tli.c **** {
 224              		.loc 1 151 1 is_stmt 1 view -0
 225              		.cfi_startproc
 226              		@ args = 0, pretend = 0, frame = 0
 227              		@ frame_needed = 0, uses_anonymous_args = 0
 228              		@ link register save eliminated.
 152:Drivers/GD32F4xx_standard_peripheral/Source/gd32f4xx_tli.c ****     if(TLI_DITHER_ENABLE == dither_stat) {
 229              		.loc 1 152 5 view .LVU70
 230 0000 054B     		ldr	r3, .L10
 153:Drivers/GD32F4xx_standard_peripheral/Source/gd32f4xx_tli.c ****         TLI_CTL |= TLI_CTL_DFEN;
 231              		.loc 1 153 9 is_stmt 0 view .LVU71
 232 0002 D3F81828 		ldr	r2, [r3, #2072]
 233              		.loc 1 153 9 is_stmt 1 view .LVU72
 152:Drivers/GD32F4xx_standard_peripheral/Source/gd32f4xx_tli.c ****     if(TLI_DITHER_ENABLE == dither_stat) {
 234              		.loc 1 152 7 is_stmt 0 view .LVU73
 235 0006 0128     		cmp	r0, #1
 236              		.loc 1 153 17 view .LVU74
 237 0008 0CBF     		ite	eq
 238 000a 42F48032 		orreq	r2, r2, #65536
 154:Drivers/GD32F4xx_standard_peripheral/Source/gd32f4xx_tli.c ****     } else {
 155:Drivers/GD32F4xx_standard_peripheral/Source/gd32f4xx_tli.c ****         TLI_CTL &= ~(TLI_CTL_DFEN);
 239              		.loc 1 155 9 is_stmt 1 view .LVU75
 240              		.loc 1 155 17 is_stmt 0 view .LVU76
ARM GAS  /tmp/ccKKjJpT.s 			page 8


 241 000e 22F48032 		bicne	r2, r2, #65536
 242 0012 C3F81828 		str	r2, [r3, #2072]
 156:Drivers/GD32F4xx_standard_peripheral/Source/gd32f4xx_tli.c ****     }
 157:Drivers/GD32F4xx_standard_peripheral/Source/gd32f4xx_tli.c **** }
 243              		.loc 1 157 1 view .LVU77
 244 0016 7047     		bx	lr
 245              	.L11:
 246              		.align	2
 247              	.L10:
 248 0018 00600140 		.word	1073831936
 249              		.cfi_endproc
 250              	.LFE119:
 252              		.section	.text.tli_enable,"ax",%progbits
 253              		.align	1
 254              		.global	tli_enable
 255              		.syntax unified
 256              		.thumb
 257              		.thumb_func
 259              	tli_enable:
 260              	.LFB120:
 158:Drivers/GD32F4xx_standard_peripheral/Source/gd32f4xx_tli.c **** 
 159:Drivers/GD32F4xx_standard_peripheral/Source/gd32f4xx_tli.c **** /*!
 160:Drivers/GD32F4xx_standard_peripheral/Source/gd32f4xx_tli.c ****     \brief    enable TLI
 161:Drivers/GD32F4xx_standard_peripheral/Source/gd32f4xx_tli.c ****     \param[in]  none
 162:Drivers/GD32F4xx_standard_peripheral/Source/gd32f4xx_tli.c ****     \param[out] none
 163:Drivers/GD32F4xx_standard_peripheral/Source/gd32f4xx_tli.c ****     \retval     none
 164:Drivers/GD32F4xx_standard_peripheral/Source/gd32f4xx_tli.c **** */
 165:Drivers/GD32F4xx_standard_peripheral/Source/gd32f4xx_tli.c **** void tli_enable(void)
 166:Drivers/GD32F4xx_standard_peripheral/Source/gd32f4xx_tli.c **** {
 261              		.loc 1 166 1 is_stmt 1 view -0
 262              		.cfi_startproc
 263              		@ args = 0, pretend = 0, frame = 0
 264              		@ frame_needed = 0, uses_anonymous_args = 0
 265              		@ link register save eliminated.
 167:Drivers/GD32F4xx_standard_peripheral/Source/gd32f4xx_tli.c ****     TLI_CTL |= TLI_CTL_TLIEN;
 266              		.loc 1 167 5 view .LVU79
 267 0000 034A     		ldr	r2, .L13
 268 0002 D2F81838 		ldr	r3, [r2, #2072]
 269              		.loc 1 167 13 is_stmt 0 view .LVU80
 270 0006 43F00103 		orr	r3, r3, #1
 271 000a C2F81838 		str	r3, [r2, #2072]
 168:Drivers/GD32F4xx_standard_peripheral/Source/gd32f4xx_tli.c **** }
 272              		.loc 1 168 1 view .LVU81
 273 000e 7047     		bx	lr
 274              	.L14:
 275              		.align	2
 276              	.L13:
 277 0010 00600140 		.word	1073831936
 278              		.cfi_endproc
 279              	.LFE120:
 281              		.section	.text.tli_disable,"ax",%progbits
 282              		.align	1
 283              		.global	tli_disable
 284              		.syntax unified
 285              		.thumb
 286              		.thumb_func
 288              	tli_disable:
ARM GAS  /tmp/ccKKjJpT.s 			page 9


 289              	.LFB121:
 169:Drivers/GD32F4xx_standard_peripheral/Source/gd32f4xx_tli.c **** 
 170:Drivers/GD32F4xx_standard_peripheral/Source/gd32f4xx_tli.c **** /*!
 171:Drivers/GD32F4xx_standard_peripheral/Source/gd32f4xx_tli.c ****     \brief    disable TLI
 172:Drivers/GD32F4xx_standard_peripheral/Source/gd32f4xx_tli.c ****     \param[in]  none
 173:Drivers/GD32F4xx_standard_peripheral/Source/gd32f4xx_tli.c ****     \param[out] none
 174:Drivers/GD32F4xx_standard_peripheral/Source/gd32f4xx_tli.c ****     \retval     none
 175:Drivers/GD32F4xx_standard_peripheral/Source/gd32f4xx_tli.c **** */
 176:Drivers/GD32F4xx_standard_peripheral/Source/gd32f4xx_tli.c **** void tli_disable(void)
 177:Drivers/GD32F4xx_standard_peripheral/Source/gd32f4xx_tli.c **** {
 290              		.loc 1 177 1 is_stmt 1 view -0
 291              		.cfi_startproc
 292              		@ args = 0, pretend = 0, frame = 0
 293              		@ frame_needed = 0, uses_anonymous_args = 0
 294              		@ link register save eliminated.
 178:Drivers/GD32F4xx_standard_peripheral/Source/gd32f4xx_tli.c ****     TLI_CTL &= ~(TLI_CTL_TLIEN);
 295              		.loc 1 178 5 view .LVU83
 296 0000 034A     		ldr	r2, .L16
 297 0002 D2F81838 		ldr	r3, [r2, #2072]
 298              		.loc 1 178 13 is_stmt 0 view .LVU84
 299 0006 23F00103 		bic	r3, r3, #1
 300 000a C2F81838 		str	r3, [r2, #2072]
 179:Drivers/GD32F4xx_standard_peripheral/Source/gd32f4xx_tli.c **** }
 301              		.loc 1 179 1 view .LVU85
 302 000e 7047     		bx	lr
 303              	.L17:
 304              		.align	2
 305              	.L16:
 306 0010 00600140 		.word	1073831936
 307              		.cfi_endproc
 308              	.LFE121:
 310              		.section	.text.tli_reload_config,"ax",%progbits
 311              		.align	1
 312              		.global	tli_reload_config
 313              		.syntax unified
 314              		.thumb
 315              		.thumb_func
 317              	tli_reload_config:
 318              	.LVL5:
 319              	.LFB122:
 180:Drivers/GD32F4xx_standard_peripheral/Source/gd32f4xx_tli.c **** 
 181:Drivers/GD32F4xx_standard_peripheral/Source/gd32f4xx_tli.c **** /*!
 182:Drivers/GD32F4xx_standard_peripheral/Source/gd32f4xx_tli.c ****     \brief    configure TLI reload mode
 183:Drivers/GD32F4xx_standard_peripheral/Source/gd32f4xx_tli.c ****     \param[in]  reload_mod
 184:Drivers/GD32F4xx_standard_peripheral/Source/gd32f4xx_tli.c ****                 only one parameter can be selected which is shown as below:
 185:Drivers/GD32F4xx_standard_peripheral/Source/gd32f4xx_tli.c ****       \arg        TLI_FRAME_BLANK_RELOAD_EN
 186:Drivers/GD32F4xx_standard_peripheral/Source/gd32f4xx_tli.c ****       \arg        TLI_REQUEST_RELOAD_EN
 187:Drivers/GD32F4xx_standard_peripheral/Source/gd32f4xx_tli.c ****     \param[out] none
 188:Drivers/GD32F4xx_standard_peripheral/Source/gd32f4xx_tli.c ****     \retval     none
 189:Drivers/GD32F4xx_standard_peripheral/Source/gd32f4xx_tli.c **** */
 190:Drivers/GD32F4xx_standard_peripheral/Source/gd32f4xx_tli.c **** void tli_reload_config(uint8_t reload_mod)
 191:Drivers/GD32F4xx_standard_peripheral/Source/gd32f4xx_tli.c **** {
 320              		.loc 1 191 1 is_stmt 1 view -0
 321              		.cfi_startproc
 322              		@ args = 0, pretend = 0, frame = 0
 323              		@ frame_needed = 0, uses_anonymous_args = 0
 324              		@ link register save eliminated.
ARM GAS  /tmp/ccKKjJpT.s 			page 10


 192:Drivers/GD32F4xx_standard_peripheral/Source/gd32f4xx_tli.c ****     if(TLI_FRAME_BLANK_RELOAD_EN == reload_mod) {
 325              		.loc 1 192 5 view .LVU87
 326 0000 054B     		ldr	r3, .L22
 193:Drivers/GD32F4xx_standard_peripheral/Source/gd32f4xx_tli.c ****         /* the layer configuration will be reloaded at frame blank */
 194:Drivers/GD32F4xx_standard_peripheral/Source/gd32f4xx_tli.c ****         TLI_RL |= TLI_RL_FBR;
 327              		.loc 1 194 9 is_stmt 0 view .LVU88
 328 0002 D3F82428 		ldr	r2, [r3, #2084]
 192:Drivers/GD32F4xx_standard_peripheral/Source/gd32f4xx_tli.c ****     if(TLI_FRAME_BLANK_RELOAD_EN == reload_mod) {
 329              		.loc 1 192 7 view .LVU89
 330 0006 20B9     		cbnz	r0, .L19
 331              		.loc 1 194 9 is_stmt 1 view .LVU90
 332              		.loc 1 194 16 is_stmt 0 view .LVU91
 333 0008 42F00202 		orr	r2, r2, #2
 334              	.L21:
 195:Drivers/GD32F4xx_standard_peripheral/Source/gd32f4xx_tli.c ****     } else {
 196:Drivers/GD32F4xx_standard_peripheral/Source/gd32f4xx_tli.c ****         /* the layer configuration will be reloaded after this bit sets */
 197:Drivers/GD32F4xx_standard_peripheral/Source/gd32f4xx_tli.c ****         TLI_RL |= TLI_RL_RQR;
 335              		.loc 1 197 16 view .LVU92
 336 000c C3F82428 		str	r2, [r3, #2084]
 198:Drivers/GD32F4xx_standard_peripheral/Source/gd32f4xx_tli.c ****     }
 199:Drivers/GD32F4xx_standard_peripheral/Source/gd32f4xx_tli.c **** }
 337              		.loc 1 199 1 view .LVU93
 338 0010 7047     		bx	lr
 339              	.L19:
 197:Drivers/GD32F4xx_standard_peripheral/Source/gd32f4xx_tli.c ****     }
 340              		.loc 1 197 9 is_stmt 1 view .LVU94
 197:Drivers/GD32F4xx_standard_peripheral/Source/gd32f4xx_tli.c ****     }
 341              		.loc 1 197 16 is_stmt 0 view .LVU95
 342 0012 42F00102 		orr	r2, r2, #1
 343 0016 F9E7     		b	.L21
 344              	.L23:
 345              		.align	2
 346              	.L22:
 347 0018 00600140 		.word	1073831936
 348              		.cfi_endproc
 349              	.LFE122:
 351              		.section	.text.tli_layer_struct_para_init,"ax",%progbits
 352              		.align	1
 353              		.global	tli_layer_struct_para_init
 354              		.syntax unified
 355              		.thumb
 356              		.thumb_func
 358              	tli_layer_struct_para_init:
 359              	.LVL6:
 360              	.LFB123:
 200:Drivers/GD32F4xx_standard_peripheral/Source/gd32f4xx_tli.c **** 
 201:Drivers/GD32F4xx_standard_peripheral/Source/gd32f4xx_tli.c **** /*!
 202:Drivers/GD32F4xx_standard_peripheral/Source/gd32f4xx_tli.c ****     \brief    initialize the parameters of TLI layer structure with the default values, it is sugge
 203:Drivers/GD32F4xx_standard_peripheral/Source/gd32f4xx_tli.c ****                 that call this function after a tli_layer_parameter_struct structure is defined
 204:Drivers/GD32F4xx_standard_peripheral/Source/gd32f4xx_tli.c ****     \param[in]  none
 205:Drivers/GD32F4xx_standard_peripheral/Source/gd32f4xx_tli.c ****     \param[out] layer_struct: TLI Layer parameter struct
 206:Drivers/GD32F4xx_standard_peripheral/Source/gd32f4xx_tli.c ****                   layer_window_rightpos: window right position
 207:Drivers/GD32F4xx_standard_peripheral/Source/gd32f4xx_tli.c ****                   layer_window_leftpos: window left position
 208:Drivers/GD32F4xx_standard_peripheral/Source/gd32f4xx_tli.c ****                   layer_window_bottompos: window bottom position
 209:Drivers/GD32F4xx_standard_peripheral/Source/gd32f4xx_tli.c ****                   layer_window_toppos: window top position
 210:Drivers/GD32F4xx_standard_peripheral/Source/gd32f4xx_tli.c ****                   layer_ppf: LAYER_PPF_ARGB8888,LAYER_PPF_RGB888,LAYER_PPF_RGB565,
 211:Drivers/GD32F4xx_standard_peripheral/Source/gd32f4xx_tli.c ****                                  LAYER_PPF_ARG1555,LAYER_PPF_ARGB4444,LAYER_PPF_L8,
ARM GAS  /tmp/ccKKjJpT.s 			page 11


 212:Drivers/GD32F4xx_standard_peripheral/Source/gd32f4xx_tli.c ****                                  LAYER_PPF_AL44,LAYER_PPF_AL88
 213:Drivers/GD32F4xx_standard_peripheral/Source/gd32f4xx_tli.c ****                   layer_sa: specified alpha
 214:Drivers/GD32F4xx_standard_peripheral/Source/gd32f4xx_tli.c ****                   layer_default_alpha: the default color alpha
 215:Drivers/GD32F4xx_standard_peripheral/Source/gd32f4xx_tli.c ****                   layer_default_red: the default color red
 216:Drivers/GD32F4xx_standard_peripheral/Source/gd32f4xx_tli.c ****                   layer_default_green: the default color green
 217:Drivers/GD32F4xx_standard_peripheral/Source/gd32f4xx_tli.c ****                   layer_default_blue: the default color blue
 218:Drivers/GD32F4xx_standard_peripheral/Source/gd32f4xx_tli.c ****                   layer_acf1: LAYER_ACF1_SA,LAYER_ACF1_PASA
 219:Drivers/GD32F4xx_standard_peripheral/Source/gd32f4xx_tli.c ****                   layer_acf2: LAYER_ACF2_SA,LAYER_ACF2_PASA
 220:Drivers/GD32F4xx_standard_peripheral/Source/gd32f4xx_tli.c ****                   layer_frame_bufaddr: frame buffer base address
 221:Drivers/GD32F4xx_standard_peripheral/Source/gd32f4xx_tli.c ****                   layer_frame_buf_stride_offset: frame buffer stride offset
 222:Drivers/GD32F4xx_standard_peripheral/Source/gd32f4xx_tli.c ****                   layer_frame_line_length: frame line length
 223:Drivers/GD32F4xx_standard_peripheral/Source/gd32f4xx_tli.c ****                   layer_frame_total_line_number: frame total line number
 224:Drivers/GD32F4xx_standard_peripheral/Source/gd32f4xx_tli.c ****     \retval     none
 225:Drivers/GD32F4xx_standard_peripheral/Source/gd32f4xx_tli.c **** */
 226:Drivers/GD32F4xx_standard_peripheral/Source/gd32f4xx_tli.c **** void tli_layer_struct_para_init(tli_layer_parameter_struct *layer_struct)
 227:Drivers/GD32F4xx_standard_peripheral/Source/gd32f4xx_tli.c **** {
 361              		.loc 1 227 1 is_stmt 1 view -0
 362              		.cfi_startproc
 363              		@ args = 0, pretend = 0, frame = 0
 364              		@ frame_needed = 0, uses_anonymous_args = 0
 365              		@ link register save eliminated.
 228:Drivers/GD32F4xx_standard_peripheral/Source/gd32f4xx_tli.c ****     /* initialize the struct parameters with default values */
 229:Drivers/GD32F4xx_standard_peripheral/Source/gd32f4xx_tli.c ****     layer_struct->layer_window_rightpos = TLI_DEFAULT_VALUE;
 366              		.loc 1 229 5 view .LVU97
 230:Drivers/GD32F4xx_standard_peripheral/Source/gd32f4xx_tli.c ****     layer_struct->layer_window_leftpos = TLI_DEFAULT_VALUE;
 367              		.loc 1 230 5 view .LVU98
 231:Drivers/GD32F4xx_standard_peripheral/Source/gd32f4xx_tli.c ****     layer_struct->layer_window_bottompos = TLI_DEFAULT_VALUE;
 368              		.loc 1 231 5 view .LVU99
 232:Drivers/GD32F4xx_standard_peripheral/Source/gd32f4xx_tli.c ****     layer_struct->layer_window_toppos = TLI_DEFAULT_VALUE;
 369              		.loc 1 232 5 view .LVU100
 233:Drivers/GD32F4xx_standard_peripheral/Source/gd32f4xx_tli.c ****     layer_struct->layer_ppf = LAYER_PPF_ARGB8888;
 370              		.loc 1 233 5 view .LVU101
 234:Drivers/GD32F4xx_standard_peripheral/Source/gd32f4xx_tli.c ****     layer_struct->layer_sa = TLI_OPAQUE_VALUE;
 371              		.loc 1 234 5 view .LVU102
 235:Drivers/GD32F4xx_standard_peripheral/Source/gd32f4xx_tli.c ****     layer_struct->layer_default_alpha = TLI_DEFAULT_VALUE;
 372              		.loc 1 235 5 view .LVU103
 236:Drivers/GD32F4xx_standard_peripheral/Source/gd32f4xx_tli.c ****     layer_struct->layer_default_red = TLI_DEFAULT_VALUE;
 373              		.loc 1 236 5 view .LVU104
 237:Drivers/GD32F4xx_standard_peripheral/Source/gd32f4xx_tli.c ****     layer_struct->layer_default_green = TLI_DEFAULT_VALUE;
 374              		.loc 1 237 5 view .LVU105
 238:Drivers/GD32F4xx_standard_peripheral/Source/gd32f4xx_tli.c ****     layer_struct->layer_default_blue = TLI_DEFAULT_VALUE;
 375              		.loc 1 238 5 view .LVU106
 234:Drivers/GD32F4xx_standard_peripheral/Source/gd32f4xx_tli.c ****     layer_struct->layer_default_alpha = TLI_DEFAULT_VALUE;
 376              		.loc 1 234 28 is_stmt 0 view .LVU107
 377 0000 FF22     		movs	r2, #255
 229:Drivers/GD32F4xx_standard_peripheral/Source/gd32f4xx_tli.c ****     layer_struct->layer_window_leftpos = TLI_DEFAULT_VALUE;
 378              		.loc 1 229 41 view .LVU108
 379 0002 0023     		movs	r3, #0
 234:Drivers/GD32F4xx_standard_peripheral/Source/gd32f4xx_tli.c ****     layer_struct->layer_default_alpha = TLI_DEFAULT_VALUE;
 380              		.loc 1 234 28 view .LVU109
 381 0004 C260     		str	r2, [r0, #12]
 239:Drivers/GD32F4xx_standard_peripheral/Source/gd32f4xx_tli.c ****     layer_struct->layer_acf1 = LAYER_ACF1_PASA;
 240:Drivers/GD32F4xx_standard_peripheral/Source/gd32f4xx_tli.c ****     layer_struct->layer_acf2 = LAYER_ACF2_PASA;
 382              		.loc 1 240 30 view .LVU110
 383 0006 4FF4C061 		mov	r1, #1536
 384 000a 0722     		movs	r2, #7
 231:Drivers/GD32F4xx_standard_peripheral/Source/gd32f4xx_tli.c ****     layer_struct->layer_window_toppos = TLI_DEFAULT_VALUE;
ARM GAS  /tmp/ccKKjJpT.s 			page 12


 385              		.loc 1 231 42 view .LVU111
 386 000c C0E90033 		strd	r3, r3, [r0]
 387              		.loc 1 240 30 view .LVU112
 388 0010 C0E90512 		strd	r1, r2, [r0, #20]
 241:Drivers/GD32F4xx_standard_peripheral/Source/gd32f4xx_tli.c ****     layer_struct->layer_frame_bufaddr = TLI_DEFAULT_VALUE;
 242:Drivers/GD32F4xx_standard_peripheral/Source/gd32f4xx_tli.c ****     layer_struct->layer_frame_buf_stride_offset = TLI_DEFAULT_VALUE;
 389              		.loc 1 242 49 view .LVU113
 390 0014 C0E90733 		strd	r3, r3, [r0, #28]
 233:Drivers/GD32F4xx_standard_peripheral/Source/gd32f4xx_tli.c ****     layer_struct->layer_sa = TLI_OPAQUE_VALUE;
 391              		.loc 1 233 29 view .LVU114
 392 0018 8360     		str	r3, [r0, #8]
 238:Drivers/GD32F4xx_standard_peripheral/Source/gd32f4xx_tli.c ****     layer_struct->layer_acf1 = LAYER_ACF1_PASA;
 393              		.loc 1 238 38 view .LVU115
 394 001a 0374     		strb	r3, [r0, #16]
 239:Drivers/GD32F4xx_standard_peripheral/Source/gd32f4xx_tli.c ****     layer_struct->layer_acf2 = LAYER_ACF2_PASA;
 395              		.loc 1 239 5 is_stmt 1 view .LVU116
 240:Drivers/GD32F4xx_standard_peripheral/Source/gd32f4xx_tli.c ****     layer_struct->layer_frame_bufaddr = TLI_DEFAULT_VALUE;
 396              		.loc 1 240 5 view .LVU117
 241:Drivers/GD32F4xx_standard_peripheral/Source/gd32f4xx_tli.c ****     layer_struct->layer_frame_buf_stride_offset = TLI_DEFAULT_VALUE;
 397              		.loc 1 241 5 view .LVU118
 398              		.loc 1 242 5 view .LVU119
 243:Drivers/GD32F4xx_standard_peripheral/Source/gd32f4xx_tli.c ****     layer_struct->layer_frame_line_length = TLI_DEFAULT_VALUE;
 399              		.loc 1 243 5 view .LVU120
 244:Drivers/GD32F4xx_standard_peripheral/Source/gd32f4xx_tli.c ****     layer_struct->layer_frame_total_line_number = TLI_DEFAULT_VALUE;
 400              		.loc 1 244 5 view .LVU121
 401              		.loc 1 244 49 is_stmt 0 view .LVU122
 402 001c 8384     		strh	r3, [r0, #36]	@ movhi
 245:Drivers/GD32F4xx_standard_peripheral/Source/gd32f4xx_tli.c **** }
 403              		.loc 1 245 1 view .LVU123
 404 001e 7047     		bx	lr
 405              		.cfi_endproc
 406              	.LFE123:
 408              		.section	.text.tli_layer_init,"ax",%progbits
 409              		.align	1
 410              		.global	tli_layer_init
 411              		.syntax unified
 412              		.thumb
 413              		.thumb_func
 415              	tli_layer_init:
 416              	.LVL7:
 417              	.LFB124:
 246:Drivers/GD32F4xx_standard_peripheral/Source/gd32f4xx_tli.c **** 
 247:Drivers/GD32F4xx_standard_peripheral/Source/gd32f4xx_tli.c **** /*!
 248:Drivers/GD32F4xx_standard_peripheral/Source/gd32f4xx_tli.c ****     \brief    initialize TLI layer
 249:Drivers/GD32F4xx_standard_peripheral/Source/gd32f4xx_tli.c ****     \param[in]  layerx: LAYERx(x=0,1)
 250:Drivers/GD32F4xx_standard_peripheral/Source/gd32f4xx_tli.c ****     \param[in]  layer_struct: TLI Layer parameter struct
 251:Drivers/GD32F4xx_standard_peripheral/Source/gd32f4xx_tli.c ****                   layer_window_rightpos: window right position
 252:Drivers/GD32F4xx_standard_peripheral/Source/gd32f4xx_tli.c ****                   layer_window_leftpos: window left position
 253:Drivers/GD32F4xx_standard_peripheral/Source/gd32f4xx_tli.c ****                   layer_window_bottompos: window bottom position
 254:Drivers/GD32F4xx_standard_peripheral/Source/gd32f4xx_tli.c ****                   layer_window_toppos: window top position
 255:Drivers/GD32F4xx_standard_peripheral/Source/gd32f4xx_tli.c ****                   layer_ppf: LAYER_PPF_ARGB8888,LAYER_PPF_RGB888,LAYER_PPF_RGB565,
 256:Drivers/GD32F4xx_standard_peripheral/Source/gd32f4xx_tli.c ****                                  LAYER_PPF_ARG1555,LAYER_PPF_ARGB4444,LAYER_PPF_L8,
 257:Drivers/GD32F4xx_standard_peripheral/Source/gd32f4xx_tli.c ****                                  LAYER_PPF_AL44,LAYER_PPF_AL88
 258:Drivers/GD32F4xx_standard_peripheral/Source/gd32f4xx_tli.c ****                   layer_sa: specified alpha
 259:Drivers/GD32F4xx_standard_peripheral/Source/gd32f4xx_tli.c ****                   layer_default_alpha: the default color alpha
 260:Drivers/GD32F4xx_standard_peripheral/Source/gd32f4xx_tli.c ****                   layer_default_red: the default color red
 261:Drivers/GD32F4xx_standard_peripheral/Source/gd32f4xx_tli.c ****                   layer_default_green: the default color green
ARM GAS  /tmp/ccKKjJpT.s 			page 13


 262:Drivers/GD32F4xx_standard_peripheral/Source/gd32f4xx_tli.c ****                   layer_default_blue: the default color blue
 263:Drivers/GD32F4xx_standard_peripheral/Source/gd32f4xx_tli.c ****                   layer_acf1: LAYER_ACF1_SA,LAYER_ACF1_PASA
 264:Drivers/GD32F4xx_standard_peripheral/Source/gd32f4xx_tli.c ****                   layer_acf2: LAYER_ACF2_SA,LAYER_ACF2_PASA
 265:Drivers/GD32F4xx_standard_peripheral/Source/gd32f4xx_tli.c ****                   layer_frame_bufaddr: frame buffer base address
 266:Drivers/GD32F4xx_standard_peripheral/Source/gd32f4xx_tli.c ****                   layer_frame_buf_stride_offset: frame buffer stride offset
 267:Drivers/GD32F4xx_standard_peripheral/Source/gd32f4xx_tli.c ****                   layer_frame_line_length: frame line length
 268:Drivers/GD32F4xx_standard_peripheral/Source/gd32f4xx_tli.c ****                   layer_frame_total_line_number: frame total line number
 269:Drivers/GD32F4xx_standard_peripheral/Source/gd32f4xx_tli.c ****     \param[out] none
 270:Drivers/GD32F4xx_standard_peripheral/Source/gd32f4xx_tli.c ****     \retval     none
 271:Drivers/GD32F4xx_standard_peripheral/Source/gd32f4xx_tli.c **** */
 272:Drivers/GD32F4xx_standard_peripheral/Source/gd32f4xx_tli.c **** void tli_layer_init(uint32_t layerx, tli_layer_parameter_struct *layer_struct)
 273:Drivers/GD32F4xx_standard_peripheral/Source/gd32f4xx_tli.c **** {
 418              		.loc 1 273 1 is_stmt 1 view -0
 419              		.cfi_startproc
 420              		@ args = 0, pretend = 0, frame = 0
 421              		@ frame_needed = 0, uses_anonymous_args = 0
 274:Drivers/GD32F4xx_standard_peripheral/Source/gd32f4xx_tli.c ****     /* configure layer window horizontal position */
 275:Drivers/GD32F4xx_standard_peripheral/Source/gd32f4xx_tli.c ****     TLI_LxHPOS(layerx) &= ~(TLI_LxHPOS_WLP | (TLI_LxHPOS_WRP));
 422              		.loc 1 275 5 view .LVU125
 423 0000 D0F88830 		ldr	r3, [r0, #136]
 276:Drivers/GD32F4xx_standard_peripheral/Source/gd32f4xx_tli.c ****     TLI_LxHPOS(layerx) = (uint32_t)((uint32_t)layer_struct->layer_window_leftpos | ((uint32_t)layer
 424              		.loc 1 276 85 is_stmt 0 view .LVU126
 425 0004 0A88     		ldrh	r2, [r1]
 275:Drivers/GD32F4xx_standard_peripheral/Source/gd32f4xx_tli.c ****     TLI_LxHPOS(layerx) = (uint32_t)((uint32_t)layer_struct->layer_window_leftpos | ((uint32_t)layer
 426              		.loc 1 275 24 view .LVU127
 427 0006 03F0F023 		and	r3, r3, #-268374016
 273:Drivers/GD32F4xx_standard_peripheral/Source/gd32f4xx_tli.c ****     /* configure layer window horizontal position */
 428              		.loc 1 273 1 view .LVU128
 429 000a 10B5     		push	{r4, lr}
 430              	.LCFI3:
 431              		.cfi_def_cfa_offset 8
 432              		.cfi_offset 4, -8
 433              		.cfi_offset 14, -4
 275:Drivers/GD32F4xx_standard_peripheral/Source/gd32f4xx_tli.c ****     TLI_LxHPOS(layerx) = (uint32_t)((uint32_t)layer_struct->layer_window_leftpos | ((uint32_t)layer
 434              		.loc 1 275 24 view .LVU129
 435 000c C0F88830 		str	r3, [r0, #136]
 436              		.loc 1 276 5 is_stmt 1 view .LVU130
 437              		.loc 1 276 37 is_stmt 0 view .LVU131
 438 0010 4B88     		ldrh	r3, [r1, #2]
 439              		.loc 1 276 26 view .LVU132
 440 0012 43EA0243 		orr	r3, r3, r2, lsl #16
 441              		.loc 1 276 24 view .LVU133
 442 0016 C0F88830 		str	r3, [r0, #136]
 277:Drivers/GD32F4xx_standard_peripheral/Source/gd32f4xx_tli.c ****     /* configure layer window vertical position */
 278:Drivers/GD32F4xx_standard_peripheral/Source/gd32f4xx_tli.c ****     TLI_LxVPOS(layerx) &= ~(TLI_LxVPOS_WTP | (TLI_LxVPOS_WBP));
 443              		.loc 1 278 5 is_stmt 1 view .LVU134
 444 001a D0F88C30 		ldr	r3, [r0, #140]
 279:Drivers/GD32F4xx_standard_peripheral/Source/gd32f4xx_tli.c ****     TLI_LxVPOS(layerx) = (uint32_t)((uint32_t)layer_struct->layer_window_toppos | ((uint32_t)layer_
 445              		.loc 1 279 84 is_stmt 0 view .LVU135
 446 001e 8A88     		ldrh	r2, [r1, #4]
 278:Drivers/GD32F4xx_standard_peripheral/Source/gd32f4xx_tli.c ****     TLI_LxVPOS(layerx) = (uint32_t)((uint32_t)layer_struct->layer_window_toppos | ((uint32_t)layer_
 447              		.loc 1 278 24 view .LVU136
 448 0020 03F0F023 		and	r3, r3, #-268374016
 449 0024 C0F88C30 		str	r3, [r0, #140]
 450              		.loc 1 279 5 is_stmt 1 view .LVU137
 451              		.loc 1 279 37 is_stmt 0 view .LVU138
 452 0028 CB88     		ldrh	r3, [r1, #6]
ARM GAS  /tmp/ccKKjJpT.s 			page 14


 453              		.loc 1 279 26 view .LVU139
 454 002a 43EA0243 		orr	r3, r3, r2, lsl #16
 455              		.loc 1 279 24 view .LVU140
 456 002e C0F88C30 		str	r3, [r0, #140]
 280:Drivers/GD32F4xx_standard_peripheral/Source/gd32f4xx_tli.c ****     /* configure layer packeted pixel format */
 281:Drivers/GD32F4xx_standard_peripheral/Source/gd32f4xx_tli.c ****     TLI_LxPPF(layerx) &= ~(TLI_LxPPF_PPF);
 457              		.loc 1 281 5 is_stmt 1 view .LVU141
 458 0032 D0F89430 		ldr	r3, [r0, #148]
 459              		.loc 1 281 23 is_stmt 0 view .LVU142
 460 0036 23F00703 		bic	r3, r3, #7
 461 003a C0F89430 		str	r3, [r0, #148]
 282:Drivers/GD32F4xx_standard_peripheral/Source/gd32f4xx_tli.c ****     TLI_LxPPF(layerx) = layer_struct->layer_ppf;
 462              		.loc 1 282 5 is_stmt 1 view .LVU143
 463              		.loc 1 282 37 is_stmt 0 view .LVU144
 464 003e 8B68     		ldr	r3, [r1, #8]
 465              		.loc 1 282 23 view .LVU145
 466 0040 C0F89430 		str	r3, [r0, #148]
 283:Drivers/GD32F4xx_standard_peripheral/Source/gd32f4xx_tli.c ****     /* configure layer specified alpha */
 284:Drivers/GD32F4xx_standard_peripheral/Source/gd32f4xx_tli.c ****     TLI_LxSA(layerx) &= ~(TLI_LxSA_SA);
 467              		.loc 1 284 5 is_stmt 1 view .LVU146
 468 0044 D0F89830 		ldr	r3, [r0, #152]
 469              		.loc 1 284 22 is_stmt 0 view .LVU147
 470 0048 23F0FF03 		bic	r3, r3, #255
 471 004c C0F89830 		str	r3, [r0, #152]
 285:Drivers/GD32F4xx_standard_peripheral/Source/gd32f4xx_tli.c ****     TLI_LxSA(layerx) = layer_struct->layer_sa;
 472              		.loc 1 285 5 is_stmt 1 view .LVU148
 473              		.loc 1 285 36 is_stmt 0 view .LVU149
 474 0050 0B7B     		ldrb	r3, [r1, #12]	@ zero_extendqisi2
 475              		.loc 1 285 22 view .LVU150
 476 0052 C0F89830 		str	r3, [r0, #152]
 286:Drivers/GD32F4xx_standard_peripheral/Source/gd32f4xx_tli.c ****     /* configure layer default color */
 287:Drivers/GD32F4xx_standard_peripheral/Source/gd32f4xx_tli.c ****     TLI_LxDC(layerx) &= ~(TLI_LxDC_DCB | (TLI_LxDC_DCG) | (TLI_LxDC_DCR) | (TLI_LxDC_DCA));
 477              		.loc 1 287 5 is_stmt 1 view .LVU151
 478              		.loc 1 287 22 is_stmt 0 view .LVU152
 479 0056 0022     		movs	r2, #0
 480              		.loc 1 287 5 view .LVU153
 481 0058 D0F89C30 		ldr	r3, [r0, #156]
 482              		.loc 1 287 22 view .LVU154
 483 005c C0F89C20 		str	r2, [r0, #156]
 288:Drivers/GD32F4xx_standard_peripheral/Source/gd32f4xx_tli.c ****     TLI_LxDC(layerx) = (uint32_t)((uint32_t)layer_struct->layer_default_blue | ((uint32_t)layer_str
 484              		.loc 1 288 5 is_stmt 1 view .LVU155
 485 0060 D1F80D30 		ldr	r3, [r1, #13]	@ unaligned
 486 0064 1BBA     		rev	r3, r3
 487              		.loc 1 288 22 is_stmt 0 view .LVU156
 488 0066 C0F89C30 		str	r3, [r0, #156]
 289:Drivers/GD32F4xx_standard_peripheral/Source/gd32f4xx_tli.c ****                                   | ((uint32_t)layer_struct->layer_default_red << 16U)
 290:Drivers/GD32F4xx_standard_peripheral/Source/gd32f4xx_tli.c ****                                   | ((uint32_t)layer_struct->layer_default_alpha << 24U));
 291:Drivers/GD32F4xx_standard_peripheral/Source/gd32f4xx_tli.c **** 
 292:Drivers/GD32F4xx_standard_peripheral/Source/gd32f4xx_tli.c ****     /* configure layer alpha calculation factors */
 293:Drivers/GD32F4xx_standard_peripheral/Source/gd32f4xx_tli.c ****     TLI_LxBLEND(layerx) &= ~(TLI_LxBLEND_ACF2 | (TLI_LxBLEND_ACF1));
 489              		.loc 1 293 5 is_stmt 1 view .LVU157
 490 006a D0F8A030 		ldr	r3, [r0, #160]
 491              		.loc 1 293 25 is_stmt 0 view .LVU158
 492 006e 23F4E063 		bic	r3, r3, #1792
 493 0072 23F00703 		bic	r3, r3, #7
 494 0076 C0F8A030 		str	r3, [r0, #160]
 294:Drivers/GD32F4xx_standard_peripheral/Source/gd32f4xx_tli.c ****     TLI_LxBLEND(layerx) = ((layer_struct->layer_acf2) | (layer_struct->layer_acf1));
ARM GAS  /tmp/ccKKjJpT.s 			page 15


 495              		.loc 1 294 5 is_stmt 1 view .LVU159
 496              		.loc 1 294 55 is_stmt 0 view .LVU160
 497 007a D1E90543 		ldrd	r4, r3, [r1, #20]
 498 007e 2343     		orrs	r3, r3, r4
 499              		.loc 1 294 25 view .LVU161
 500 0080 C0F8A030 		str	r3, [r0, #160]
 295:Drivers/GD32F4xx_standard_peripheral/Source/gd32f4xx_tli.c ****     /* configure layer frame buffer base address */
 296:Drivers/GD32F4xx_standard_peripheral/Source/gd32f4xx_tli.c ****     TLI_LxFBADDR(layerx) &= ~(TLI_LxFBADDR_FBADD);
 501              		.loc 1 296 5 is_stmt 1 view .LVU162
 502 0084 D0F8AC30 		ldr	r3, [r0, #172]
 503              		.loc 1 296 26 is_stmt 0 view .LVU163
 504 0088 C0F8AC20 		str	r2, [r0, #172]
 297:Drivers/GD32F4xx_standard_peripheral/Source/gd32f4xx_tli.c ****     TLI_LxFBADDR(layerx) = (layer_struct->layer_frame_bufaddr);
 505              		.loc 1 297 5 is_stmt 1 view .LVU164
 506              		.loc 1 297 41 is_stmt 0 view .LVU165
 507 008c CB69     		ldr	r3, [r1, #28]
 508              		.loc 1 297 26 view .LVU166
 509 008e C0F8AC30 		str	r3, [r0, #172]
 298:Drivers/GD32F4xx_standard_peripheral/Source/gd32f4xx_tli.c ****     /* configure layer frame line length */
 299:Drivers/GD32F4xx_standard_peripheral/Source/gd32f4xx_tli.c ****     TLI_LxFLLEN(layerx) &= ~(TLI_LxFLLEN_FLL | (TLI_LxFLLEN_STDOFF));
 510              		.loc 1 299 5 is_stmt 1 view .LVU167
 511 0092 D0F8B030 		ldr	r3, [r0, #176]
 300:Drivers/GD32F4xx_standard_peripheral/Source/gd32f4xx_tli.c ****     TLI_LxFLLEN(layerx) = (uint32_t)((uint32_t)layer_struct->layer_frame_line_length | ((uint32_t)l
 512              		.loc 1 300 89 is_stmt 0 view .LVU168
 513 0096 0A8C     		ldrh	r2, [r1, #32]
 299:Drivers/GD32F4xx_standard_peripheral/Source/gd32f4xx_tli.c ****     TLI_LxFLLEN(layerx) = (uint32_t)((uint32_t)layer_struct->layer_frame_line_length | ((uint32_t)l
 514              		.loc 1 299 25 view .LVU169
 515 0098 03F0C023 		and	r3, r3, #-1073692672
 516 009c C0F8B030 		str	r3, [r0, #176]
 517              		.loc 1 300 5 is_stmt 1 view .LVU170
 518              		.loc 1 300 38 is_stmt 0 view .LVU171
 519 00a0 4B8C     		ldrh	r3, [r1, #34]
 520              		.loc 1 300 27 view .LVU172
 521 00a2 43EA0243 		orr	r3, r3, r2, lsl #16
 522              		.loc 1 300 25 view .LVU173
 523 00a6 C0F8B030 		str	r3, [r0, #176]
 301:Drivers/GD32F4xx_standard_peripheral/Source/gd32f4xx_tli.c ****     /* configure layer frame total line number */
 302:Drivers/GD32F4xx_standard_peripheral/Source/gd32f4xx_tli.c ****     TLI_LxFTLN(layerx) &= ~(TLI_LxFTLN_FTLN);
 524              		.loc 1 302 5 is_stmt 1 view .LVU174
 525 00aa D0F8B430 		ldr	r3, [r0, #180]
 526              		.loc 1 302 24 is_stmt 0 view .LVU175
 527 00ae 23F4FF63 		bic	r3, r3, #2040
 528 00b2 23F00703 		bic	r3, r3, #7
 529 00b6 C0F8B430 		str	r3, [r0, #180]
 303:Drivers/GD32F4xx_standard_peripheral/Source/gd32f4xx_tli.c ****     TLI_LxFTLN(layerx) = (uint32_t)(layer_struct->layer_frame_total_line_number);
 530              		.loc 1 303 5 is_stmt 1 view .LVU176
 531              		.loc 1 303 26 is_stmt 0 view .LVU177
 532 00ba 8B8C     		ldrh	r3, [r1, #36]
 533              		.loc 1 303 24 view .LVU178
 534 00bc C0F8B430 		str	r3, [r0, #180]
 304:Drivers/GD32F4xx_standard_peripheral/Source/gd32f4xx_tli.c **** 
 305:Drivers/GD32F4xx_standard_peripheral/Source/gd32f4xx_tli.c **** }
 535              		.loc 1 305 1 view .LVU179
 536 00c0 10BD     		pop	{r4, pc}
 537              		.cfi_endproc
 538              	.LFE124:
 540              		.section	.text.tli_layer_window_offset_modify,"ax",%progbits
ARM GAS  /tmp/ccKKjJpT.s 			page 16


 541              		.align	1
 542              		.global	tli_layer_window_offset_modify
 543              		.syntax unified
 544              		.thumb
 545              		.thumb_func
 547              	tli_layer_window_offset_modify:
 548              	.LVL8:
 549              	.LFB125:
 306:Drivers/GD32F4xx_standard_peripheral/Source/gd32f4xx_tli.c **** 
 307:Drivers/GD32F4xx_standard_peripheral/Source/gd32f4xx_tli.c **** /*!
 308:Drivers/GD32F4xx_standard_peripheral/Source/gd32f4xx_tli.c ****     \brief    reconfigure window position
 309:Drivers/GD32F4xx_standard_peripheral/Source/gd32f4xx_tli.c ****     \param[in]  layerx: LAYERx(x=0,1)
 310:Drivers/GD32F4xx_standard_peripheral/Source/gd32f4xx_tli.c ****     \param[in]  offset_x: new horizontal offset
 311:Drivers/GD32F4xx_standard_peripheral/Source/gd32f4xx_tli.c ****     \param[in]  offset_y: new vertical offset
 312:Drivers/GD32F4xx_standard_peripheral/Source/gd32f4xx_tli.c ****     \param[out] none
 313:Drivers/GD32F4xx_standard_peripheral/Source/gd32f4xx_tli.c ****     \retval     none
 314:Drivers/GD32F4xx_standard_peripheral/Source/gd32f4xx_tli.c **** */
 315:Drivers/GD32F4xx_standard_peripheral/Source/gd32f4xx_tli.c **** void tli_layer_window_offset_modify(uint32_t layerx, uint16_t offset_x, uint16_t offset_y)
 316:Drivers/GD32F4xx_standard_peripheral/Source/gd32f4xx_tli.c **** {
 550              		.loc 1 316 1 is_stmt 1 view -0
 551              		.cfi_startproc
 552              		@ args = 0, pretend = 0, frame = 0
 553              		@ frame_needed = 0, uses_anonymous_args = 0
 317:Drivers/GD32F4xx_standard_peripheral/Source/gd32f4xx_tli.c ****     /* configure window start position */
 318:Drivers/GD32F4xx_standard_peripheral/Source/gd32f4xx_tli.c ****     uint32_t layer_ppf, line_num, hstart, vstart;
 554              		.loc 1 318 5 view .LVU181
 319:Drivers/GD32F4xx_standard_peripheral/Source/gd32f4xx_tli.c ****     uint32_t line_length = 0U;
 555              		.loc 1 319 5 view .LVU182
 320:Drivers/GD32F4xx_standard_peripheral/Source/gd32f4xx_tli.c ****     TLI_LxHPOS(layerx) &= ~(TLI_LxHPOS_WLP | (TLI_LxHPOS_WRP));
 556              		.loc 1 320 5 view .LVU183
 557 0000 D0F88830 		ldr	r3, [r0, #136]
 558              		.loc 1 320 24 is_stmt 0 view .LVU184
 559 0004 03F0F023 		and	r3, r3, #-268374016
 316:Drivers/GD32F4xx_standard_peripheral/Source/gd32f4xx_tli.c ****     /* configure window start position */
 560              		.loc 1 316 1 view .LVU185
 561 0008 30B5     		push	{r4, r5, lr}
 562              	.LCFI4:
 563              		.cfi_def_cfa_offset 12
 564              		.cfi_offset 4, -12
 565              		.cfi_offset 5, -8
 566              		.cfi_offset 14, -4
 567              		.loc 1 320 24 view .LVU186
 568 000a C0F88830 		str	r3, [r0, #136]
 321:Drivers/GD32F4xx_standard_peripheral/Source/gd32f4xx_tli.c ****     TLI_LxVPOS(layerx) &= ~(TLI_LxVPOS_WTP | (TLI_LxVPOS_WBP));
 569              		.loc 1 321 5 is_stmt 1 view .LVU187
 570 000e D0F88C30 		ldr	r3, [r0, #140]
 322:Drivers/GD32F4xx_standard_peripheral/Source/gd32f4xx_tli.c ****     hstart = (uint32_t)offset_x + (((TLI_BPSZ & TLI_BPSZ_HBPSZ) >> 16U) + 1U);
 571              		.loc 1 322 38 is_stmt 0 view .LVU188
 572 0012 254C     		ldr	r4, .L33
 321:Drivers/GD32F4xx_standard_peripheral/Source/gd32f4xx_tli.c ****     TLI_LxVPOS(layerx) &= ~(TLI_LxVPOS_WTP | (TLI_LxVPOS_WBP));
 573              		.loc 1 321 24 view .LVU189
 574 0014 03F0F023 		and	r3, r3, #-268374016
 575 0018 C0F88C30 		str	r3, [r0, #140]
 576              		.loc 1 322 5 is_stmt 1 view .LVU190
 577              		.loc 1 322 38 is_stmt 0 view .LVU191
 578 001c D4F80C38 		ldr	r3, [r4, #2060]
 579              		.loc 1 322 65 view .LVU192
ARM GAS  /tmp/ccKKjJpT.s 			page 17


 580 0020 C3F30B43 		ubfx	r3, r3, #16, #12
 581              		.loc 1 322 12 view .LVU193
 582 0024 0133     		adds	r3, r3, #1
 583 0026 1944     		add	r1, r1, r3
 584              	.LVL9:
 323:Drivers/GD32F4xx_standard_peripheral/Source/gd32f4xx_tli.c ****     vstart = (uint32_t)offset_y + ((TLI_BPSZ & TLI_BPSZ_VBPSZ) + 1U);
 585              		.loc 1 323 5 is_stmt 1 view .LVU194
 586              		.loc 1 323 37 is_stmt 0 view .LVU195
 587 0028 D4F80C38 		ldr	r3, [r4, #2060]
 324:Drivers/GD32F4xx_standard_peripheral/Source/gd32f4xx_tli.c ****     line_num = (TLI_LxFTLN(layerx) & TLI_LxFTLN_FTLN);
 588              		.loc 1 324 17 view .LVU196
 589 002c D0F8B440 		ldr	r4, [r0, #180]
 323:Drivers/GD32F4xx_standard_peripheral/Source/gd32f4xx_tli.c ****     vstart = (uint32_t)offset_y + ((TLI_BPSZ & TLI_BPSZ_VBPSZ) + 1U);
 590              		.loc 1 323 46 view .LVU197
 591 0030 C3F30B03 		ubfx	r3, r3, #0, #12
 323:Drivers/GD32F4xx_standard_peripheral/Source/gd32f4xx_tli.c ****     vstart = (uint32_t)offset_y + ((TLI_BPSZ & TLI_BPSZ_VBPSZ) + 1U);
 592              		.loc 1 323 12 view .LVU198
 593 0034 0133     		adds	r3, r3, #1
 594 0036 1A44     		add	r2, r2, r3
 595              	.LVL10:
 596              		.loc 1 324 5 is_stmt 1 view .LVU199
 325:Drivers/GD32F4xx_standard_peripheral/Source/gd32f4xx_tli.c ****     layer_ppf = (TLI_LxPPF(layerx) & TLI_LxPPF_PPF);
 597              		.loc 1 325 18 is_stmt 0 view .LVU200
 598 0038 D0F89430 		ldr	r3, [r0, #148]
 599              		.loc 1 325 15 view .LVU201
 600 003c 03F00703 		and	r3, r3, #7
 326:Drivers/GD32F4xx_standard_peripheral/Source/gd32f4xx_tli.c ****     /* the bytes of a line equal TLI_LxFLLEN_FLL bits value minus 3 */
 327:Drivers/GD32F4xx_standard_peripheral/Source/gd32f4xx_tli.c ****     switch(layer_ppf) {
 601              		.loc 1 327 5 view .LVU202
 602 0040 013B     		subs	r3, r3, #1
 324:Drivers/GD32F4xx_standard_peripheral/Source/gd32f4xx_tli.c ****     layer_ppf = (TLI_LxPPF(layerx) & TLI_LxPPF_PPF);
 603              		.loc 1 324 14 view .LVU203
 604 0042 C4F30A04 		ubfx	r4, r4, #0, #11
 605              	.LVL11:
 325:Drivers/GD32F4xx_standard_peripheral/Source/gd32f4xx_tli.c ****     layer_ppf = (TLI_LxPPF(layerx) & TLI_LxPPF_PPF);
 606              		.loc 1 325 5 is_stmt 1 view .LVU204
 607              		.loc 1 327 5 view .LVU205
 608 0046 062B     		cmp	r3, #6
 609 0048 05D8     		bhi	.L27
 610 004a DFE803F0 		tbb	[pc, r3]
 611              	.L29:
 612 004e 17       		.byte	(.L31-.L29)/2
 613 004f 20       		.byte	(.L28-.L29)/2
 614 0050 20       		.byte	(.L28-.L29)/2
 615 0051 20       		.byte	(.L28-.L29)/2
 616 0052 27       		.byte	(.L30-.L29)/2
 617 0053 27       		.byte	(.L30-.L29)/2
 618 0054 20       		.byte	(.L28-.L29)/2
 619 0055 00       		.p2align 1
 620              	.L27:
 328:Drivers/GD32F4xx_standard_peripheral/Source/gd32f4xx_tli.c ****     case LAYER_PPF_ARGB8888:
 329:Drivers/GD32F4xx_standard_peripheral/Source/gd32f4xx_tli.c ****         /* each pixel includes 4bytes, when pixel format is ARGB8888 */
 330:Drivers/GD32F4xx_standard_peripheral/Source/gd32f4xx_tli.c ****         line_length = (((TLI_LxFLLEN(layerx) & TLI_LxFLLEN_FLL) - 3U) / 4U);
 621              		.loc 1 330 9 view .LVU206
 622              		.loc 1 330 26 is_stmt 0 view .LVU207
 623 0056 D0F8B030 		ldr	r3, [r0, #176]
 624              		.loc 1 330 46 view .LVU208
ARM GAS  /tmp/ccKKjJpT.s 			page 18


 625 005a C3F30D03 		ubfx	r3, r3, #0, #14
 626              		.loc 1 330 65 view .LVU209
 627 005e 033B     		subs	r3, r3, #3
 628              		.loc 1 330 21 view .LVU210
 629 0060 9B08     		lsrs	r3, r3, #2
 630              	.LVL12:
 331:Drivers/GD32F4xx_standard_peripheral/Source/gd32f4xx_tli.c ****         break;
 631              		.loc 1 331 9 is_stmt 1 view .LVU211
 632              	.L32:
 332:Drivers/GD32F4xx_standard_peripheral/Source/gd32f4xx_tli.c ****     case LAYER_PPF_RGB888:
 333:Drivers/GD32F4xx_standard_peripheral/Source/gd32f4xx_tli.c ****         /* each pixel includes 3bytes, when pixel format is RGB888 */
 334:Drivers/GD32F4xx_standard_peripheral/Source/gd32f4xx_tli.c ****         line_length = (((TLI_LxFLLEN(layerx) & TLI_LxFLLEN_FLL) - 3U) / 3U);
 335:Drivers/GD32F4xx_standard_peripheral/Source/gd32f4xx_tli.c ****         break;
 336:Drivers/GD32F4xx_standard_peripheral/Source/gd32f4xx_tli.c ****     case LAYER_PPF_RGB565:
 337:Drivers/GD32F4xx_standard_peripheral/Source/gd32f4xx_tli.c ****     case LAYER_PPF_ARGB1555:
 338:Drivers/GD32F4xx_standard_peripheral/Source/gd32f4xx_tli.c ****     case LAYER_PPF_ARGB4444:
 339:Drivers/GD32F4xx_standard_peripheral/Source/gd32f4xx_tli.c ****     case LAYER_PPF_AL88:
 340:Drivers/GD32F4xx_standard_peripheral/Source/gd32f4xx_tli.c ****         /* each pixel includes 2bytes, when pixel format is RGB565,ARG1555,ARGB4444 or AL88 */
 341:Drivers/GD32F4xx_standard_peripheral/Source/gd32f4xx_tli.c ****         line_length = (((TLI_LxFLLEN(layerx) & TLI_LxFLLEN_FLL) - 3U) / 2U);
 342:Drivers/GD32F4xx_standard_peripheral/Source/gd32f4xx_tli.c ****         break;
 343:Drivers/GD32F4xx_standard_peripheral/Source/gd32f4xx_tli.c ****     case LAYER_PPF_L8:
 344:Drivers/GD32F4xx_standard_peripheral/Source/gd32f4xx_tli.c ****     case LAYER_PPF_AL44:
 345:Drivers/GD32F4xx_standard_peripheral/Source/gd32f4xx_tli.c ****         /* each pixel includes 1byte, when pixel format is L8 or AL44 */
 346:Drivers/GD32F4xx_standard_peripheral/Source/gd32f4xx_tli.c ****         line_length = (((TLI_LxFLLEN(layerx) & TLI_LxFLLEN_FLL) - 3U));
 347:Drivers/GD32F4xx_standard_peripheral/Source/gd32f4xx_tli.c ****         break;
 348:Drivers/GD32F4xx_standard_peripheral/Source/gd32f4xx_tli.c ****     default:
 349:Drivers/GD32F4xx_standard_peripheral/Source/gd32f4xx_tli.c ****         break;
 350:Drivers/GD32F4xx_standard_peripheral/Source/gd32f4xx_tli.c ****     }
 351:Drivers/GD32F4xx_standard_peripheral/Source/gd32f4xx_tli.c ****     /* reconfigure window position */
 352:Drivers/GD32F4xx_standard_peripheral/Source/gd32f4xx_tli.c ****     TLI_LxHPOS(layerx) = (hstart | ((hstart + line_length - 1U) << 16U));
 633              		.loc 1 352 5 view .LVU212
 634              		.loc 1 352 59 is_stmt 0 view .LVU213
 635 0062 4D1E     		subs	r5, r1, #1
 636 0064 2B44     		add	r3, r3, r5
 637              	.LVL13:
 638              		.loc 1 352 34 view .LVU214
 639 0066 41EA0341 		orr	r1, r1, r3, lsl #16
 640              	.LVL14:
 353:Drivers/GD32F4xx_standard_peripheral/Source/gd32f4xx_tli.c ****     TLI_LxVPOS(layerx) = (vstart | ((vstart + line_num - 1U) << 16U));
 641              		.loc 1 353 56 view .LVU215
 642 006a 531E     		subs	r3, r2, #1
 643 006c 2344     		add	r3, r3, r4
 644              		.loc 1 353 34 view .LVU216
 645 006e 42EA0342 		orr	r2, r2, r3, lsl #16
 646              	.LVL15:
 352:Drivers/GD32F4xx_standard_peripheral/Source/gd32f4xx_tli.c ****     TLI_LxVPOS(layerx) = (vstart | ((vstart + line_num - 1U) << 16U));
 647              		.loc 1 352 24 view .LVU217
 648 0072 C0F88810 		str	r1, [r0, #136]
 649              		.loc 1 353 5 is_stmt 1 view .LVU218
 650              		.loc 1 353 24 is_stmt 0 view .LVU219
 651 0076 C0F88C20 		str	r2, [r0, #140]
 354:Drivers/GD32F4xx_standard_peripheral/Source/gd32f4xx_tli.c **** }
 652              		.loc 1 354 1 view .LVU220
 653 007a 30BD     		pop	{r4, r5, pc}
 654              	.LVL16:
 655              	.L31:
 334:Drivers/GD32F4xx_standard_peripheral/Source/gd32f4xx_tli.c ****         break;
ARM GAS  /tmp/ccKKjJpT.s 			page 19


 656              		.loc 1 334 9 is_stmt 1 view .LVU221
 334:Drivers/GD32F4xx_standard_peripheral/Source/gd32f4xx_tli.c ****         break;
 657              		.loc 1 334 26 is_stmt 0 view .LVU222
 658 007c D0F8B030 		ldr	r3, [r0, #176]
 334:Drivers/GD32F4xx_standard_peripheral/Source/gd32f4xx_tli.c ****         break;
 659              		.loc 1 334 46 view .LVU223
 660 0080 C3F30D03 		ubfx	r3, r3, #0, #14
 334:Drivers/GD32F4xx_standard_peripheral/Source/gd32f4xx_tli.c ****         break;
 661              		.loc 1 334 65 view .LVU224
 662 0084 033B     		subs	r3, r3, #3
 334:Drivers/GD32F4xx_standard_peripheral/Source/gd32f4xx_tli.c ****         break;
 663              		.loc 1 334 21 view .LVU225
 664 0086 0325     		movs	r5, #3
 665 0088 B3FBF5F3 		udiv	r3, r3, r5
 666              	.LVL17:
 335:Drivers/GD32F4xx_standard_peripheral/Source/gd32f4xx_tli.c ****     case LAYER_PPF_RGB565:
 667              		.loc 1 335 9 is_stmt 1 view .LVU226
 668 008c E9E7     		b	.L32
 669              	.LVL18:
 670              	.L28:
 341:Drivers/GD32F4xx_standard_peripheral/Source/gd32f4xx_tli.c ****         break;
 671              		.loc 1 341 9 view .LVU227
 341:Drivers/GD32F4xx_standard_peripheral/Source/gd32f4xx_tli.c ****         break;
 672              		.loc 1 341 26 is_stmt 0 view .LVU228
 673 008e D0F8B030 		ldr	r3, [r0, #176]
 341:Drivers/GD32F4xx_standard_peripheral/Source/gd32f4xx_tli.c ****         break;
 674              		.loc 1 341 46 view .LVU229
 675 0092 C3F30D03 		ubfx	r3, r3, #0, #14
 341:Drivers/GD32F4xx_standard_peripheral/Source/gd32f4xx_tli.c ****         break;
 676              		.loc 1 341 65 view .LVU230
 677 0096 033B     		subs	r3, r3, #3
 341:Drivers/GD32F4xx_standard_peripheral/Source/gd32f4xx_tli.c ****         break;
 678              		.loc 1 341 21 view .LVU231
 679 0098 5B08     		lsrs	r3, r3, #1
 680              	.LVL19:
 342:Drivers/GD32F4xx_standard_peripheral/Source/gd32f4xx_tli.c ****     case LAYER_PPF_L8:
 681              		.loc 1 342 9 is_stmt 1 view .LVU232
 682 009a E2E7     		b	.L32
 683              	.LVL20:
 684              	.L30:
 346:Drivers/GD32F4xx_standard_peripheral/Source/gd32f4xx_tli.c ****         break;
 685              		.loc 1 346 9 view .LVU233
 346:Drivers/GD32F4xx_standard_peripheral/Source/gd32f4xx_tli.c ****         break;
 686              		.loc 1 346 26 is_stmt 0 view .LVU234
 687 009c D0F8B030 		ldr	r3, [r0, #176]
 346:Drivers/GD32F4xx_standard_peripheral/Source/gd32f4xx_tli.c ****         break;
 688              		.loc 1 346 46 view .LVU235
 689 00a0 C3F30D03 		ubfx	r3, r3, #0, #14
 346:Drivers/GD32F4xx_standard_peripheral/Source/gd32f4xx_tli.c ****         break;
 690              		.loc 1 346 21 view .LVU236
 691 00a4 033B     		subs	r3, r3, #3
 692              	.LVL21:
 347:Drivers/GD32F4xx_standard_peripheral/Source/gd32f4xx_tli.c ****     default:
 693              		.loc 1 347 9 is_stmt 1 view .LVU237
 694 00a6 DCE7     		b	.L32
 695              	.L34:
 696              		.align	2
ARM GAS  /tmp/ccKKjJpT.s 			page 20


 697              	.L33:
 698 00a8 00600140 		.word	1073831936
 699              		.cfi_endproc
 700              	.LFE125:
 702              		.section	.text.tli_lut_struct_para_init,"ax",%progbits
 703              		.align	1
 704              		.global	tli_lut_struct_para_init
 705              		.syntax unified
 706              		.thumb
 707              		.thumb_func
 709              	tli_lut_struct_para_init:
 710              	.LVL22:
 711              	.LFB126:
 355:Drivers/GD32F4xx_standard_peripheral/Source/gd32f4xx_tli.c **** 
 356:Drivers/GD32F4xx_standard_peripheral/Source/gd32f4xx_tli.c **** /*!
 357:Drivers/GD32F4xx_standard_peripheral/Source/gd32f4xx_tli.c ****     \brief    initialize the parameters of TLI layer LUT structure with the default values, it is s
 358:Drivers/GD32F4xx_standard_peripheral/Source/gd32f4xx_tli.c ****                 that call this function after a tli_layer_lut_parameter_struct structure is defined
 359:Drivers/GD32F4xx_standard_peripheral/Source/gd32f4xx_tli.c ****     \param[in]  none
 360:Drivers/GD32F4xx_standard_peripheral/Source/gd32f4xx_tli.c ****     \param[out] lut_struct: TLI layer LUT parameter struct
 361:Drivers/GD32F4xx_standard_peripheral/Source/gd32f4xx_tli.c ****                   layer_table_addr: look up table write address
 362:Drivers/GD32F4xx_standard_peripheral/Source/gd32f4xx_tli.c ****                   layer_lut_channel_red: red channel of a LUT entry
 363:Drivers/GD32F4xx_standard_peripheral/Source/gd32f4xx_tli.c ****                   layer_lut_channel_green: green channel of a LUT entry
 364:Drivers/GD32F4xx_standard_peripheral/Source/gd32f4xx_tli.c ****                   layer_lut_channel_blue: blue channel of a LUT entry
 365:Drivers/GD32F4xx_standard_peripheral/Source/gd32f4xx_tli.c ****     \retval     none
 366:Drivers/GD32F4xx_standard_peripheral/Source/gd32f4xx_tli.c **** */
 367:Drivers/GD32F4xx_standard_peripheral/Source/gd32f4xx_tli.c **** void tli_lut_struct_para_init(tli_layer_lut_parameter_struct *lut_struct)
 368:Drivers/GD32F4xx_standard_peripheral/Source/gd32f4xx_tli.c **** {
 712              		.loc 1 368 1 view -0
 713              		.cfi_startproc
 714              		@ args = 0, pretend = 0, frame = 0
 715              		@ frame_needed = 0, uses_anonymous_args = 0
 716              		@ link register save eliminated.
 369:Drivers/GD32F4xx_standard_peripheral/Source/gd32f4xx_tli.c ****     /* initialize the struct parameters with default values */
 370:Drivers/GD32F4xx_standard_peripheral/Source/gd32f4xx_tli.c ****     lut_struct->layer_table_addr = TLI_DEFAULT_VALUE;
 717              		.loc 1 370 5 view .LVU239
 371:Drivers/GD32F4xx_standard_peripheral/Source/gd32f4xx_tli.c ****     lut_struct->layer_lut_channel_red = TLI_DEFAULT_VALUE;
 718              		.loc 1 371 5 view .LVU240
 372:Drivers/GD32F4xx_standard_peripheral/Source/gd32f4xx_tli.c ****     lut_struct->layer_lut_channel_green = TLI_DEFAULT_VALUE;
 719              		.loc 1 372 5 view .LVU241
 373:Drivers/GD32F4xx_standard_peripheral/Source/gd32f4xx_tli.c ****     lut_struct->layer_lut_channel_blue = TLI_DEFAULT_VALUE;
 720              		.loc 1 373 5 view .LVU242
 370:Drivers/GD32F4xx_standard_peripheral/Source/gd32f4xx_tli.c ****     lut_struct->layer_lut_channel_red = TLI_DEFAULT_VALUE;
 721              		.loc 1 370 34 is_stmt 0 view .LVU243
 722 0000 0023     		movs	r3, #0
 723 0002 0360     		str	r3, [r0]
 371:Drivers/GD32F4xx_standard_peripheral/Source/gd32f4xx_tli.c ****     lut_struct->layer_lut_channel_green = TLI_DEFAULT_VALUE;
 724              		.loc 1 371 39 view .LVU244
 725 0004 8380     		strh	r3, [r0, #4]	@ movhi
 726              		.loc 1 373 40 view .LVU245
 727 0006 8371     		strb	r3, [r0, #6]
 374:Drivers/GD32F4xx_standard_peripheral/Source/gd32f4xx_tli.c **** }
 728              		.loc 1 374 1 view .LVU246
 729 0008 7047     		bx	lr
 730              		.cfi_endproc
 731              	.LFE126:
 733              		.section	.text.tli_lut_init,"ax",%progbits
 734              		.align	1
ARM GAS  /tmp/ccKKjJpT.s 			page 21


 735              		.global	tli_lut_init
 736              		.syntax unified
 737              		.thumb
 738              		.thumb_func
 740              	tli_lut_init:
 741              	.LVL23:
 742              	.LFB127:
 375:Drivers/GD32F4xx_standard_peripheral/Source/gd32f4xx_tli.c **** 
 376:Drivers/GD32F4xx_standard_peripheral/Source/gd32f4xx_tli.c **** /*!
 377:Drivers/GD32F4xx_standard_peripheral/Source/gd32f4xx_tli.c ****     \brief    initialize TLI layer LUT
 378:Drivers/GD32F4xx_standard_peripheral/Source/gd32f4xx_tli.c ****     \param[in]  layerx: LAYERx(x=0,1)
 379:Drivers/GD32F4xx_standard_peripheral/Source/gd32f4xx_tli.c ****     \param[in]  lut_struct: TLI layer LUT parameter struct
 380:Drivers/GD32F4xx_standard_peripheral/Source/gd32f4xx_tli.c ****                   layer_table_addr: look up table write address
 381:Drivers/GD32F4xx_standard_peripheral/Source/gd32f4xx_tli.c ****                   layer_lut_channel_red: red channel of a LUT entry
 382:Drivers/GD32F4xx_standard_peripheral/Source/gd32f4xx_tli.c ****                   layer_lut_channel_green: green channel of a LUT entry
 383:Drivers/GD32F4xx_standard_peripheral/Source/gd32f4xx_tli.c ****                   layer_lut_channel_blue: blue channel of a LUT entry
 384:Drivers/GD32F4xx_standard_peripheral/Source/gd32f4xx_tli.c ****     \param[out] none
 385:Drivers/GD32F4xx_standard_peripheral/Source/gd32f4xx_tli.c ****     \retval     none
 386:Drivers/GD32F4xx_standard_peripheral/Source/gd32f4xx_tli.c **** */
 387:Drivers/GD32F4xx_standard_peripheral/Source/gd32f4xx_tli.c **** void tli_lut_init(uint32_t layerx, tli_layer_lut_parameter_struct *lut_struct)
 388:Drivers/GD32F4xx_standard_peripheral/Source/gd32f4xx_tli.c **** {
 743              		.loc 1 388 1 is_stmt 1 view -0
 744              		.cfi_startproc
 745              		@ args = 0, pretend = 0, frame = 0
 746              		@ frame_needed = 0, uses_anonymous_args = 0
 747              		@ link register save eliminated.
 389:Drivers/GD32F4xx_standard_peripheral/Source/gd32f4xx_tli.c ****     TLI_LxLUT(layerx) = (uint32_t)(((uint32_t)lut_struct->layer_lut_channel_blue) | ((uint32_t)lut_
 748              		.loc 1 389 5 view .LVU248
 390:Drivers/GD32F4xx_standard_peripheral/Source/gd32f4xx_tli.c ****                                    | ((uint32_t)lut_struct->layer_lut_channel_red << 16U
 391:Drivers/GD32F4xx_standard_peripheral/Source/gd32f4xx_tli.c ****                                       | ((uint32_t)lut_struct->layer_table_addr << 24U)));
 749              		.loc 1 391 81 is_stmt 0 view .LVU249
 750 0000 0A68     		ldr	r2, [r1]
 389:Drivers/GD32F4xx_standard_peripheral/Source/gd32f4xx_tli.c ****     TLI_LxLUT(layerx) = (uint32_t)(((uint32_t)lut_struct->layer_lut_channel_blue) | ((uint32_t)lut_
 751              		.loc 1 389 37 view .LVU250
 752 0002 8B79     		ldrb	r3, [r1, #6]	@ zero_extendqisi2
 389:Drivers/GD32F4xx_standard_peripheral/Source/gd32f4xx_tli.c ****     TLI_LxLUT(layerx) = (uint32_t)(((uint32_t)lut_struct->layer_lut_channel_blue) | ((uint32_t)lut_
 753              		.loc 1 389 25 view .LVU251
 754 0004 43EA0263 		orr	r3, r3, r2, lsl #24
 389:Drivers/GD32F4xx_standard_peripheral/Source/gd32f4xx_tli.c ****     TLI_LxLUT(layerx) = (uint32_t)(((uint32_t)lut_struct->layer_lut_channel_blue) | ((uint32_t)lut_
 755              		.loc 1 389 86 view .LVU252
 756 0008 4A79     		ldrb	r2, [r1, #5]	@ zero_extendqisi2
 389:Drivers/GD32F4xx_standard_peripheral/Source/gd32f4xx_tli.c ****     TLI_LxLUT(layerx) = (uint32_t)(((uint32_t)lut_struct->layer_lut_channel_blue) | ((uint32_t)lut_
 757              		.loc 1 389 25 view .LVU253
 758 000a 43EA0223 		orr	r3, r3, r2, lsl #8
 390:Drivers/GD32F4xx_standard_peripheral/Source/gd32f4xx_tli.c ****                                    | ((uint32_t)lut_struct->layer_lut_channel_red << 16U
 759              		.loc 1 390 39 view .LVU254
 760 000e 0A79     		ldrb	r2, [r1, #4]	@ zero_extendqisi2
 389:Drivers/GD32F4xx_standard_peripheral/Source/gd32f4xx_tli.c ****     TLI_LxLUT(layerx) = (uint32_t)(((uint32_t)lut_struct->layer_lut_channel_blue) | ((uint32_t)lut_
 761              		.loc 1 389 25 view .LVU255
 762 0010 43EA0243 		orr	r3, r3, r2, lsl #16
 389:Drivers/GD32F4xx_standard_peripheral/Source/gd32f4xx_tli.c ****     TLI_LxLUT(layerx) = (uint32_t)(((uint32_t)lut_struct->layer_lut_channel_blue) | ((uint32_t)lut_
 763              		.loc 1 389 23 view .LVU256
 764 0014 C0F8C430 		str	r3, [r0, #196]
 392:Drivers/GD32F4xx_standard_peripheral/Source/gd32f4xx_tli.c **** }
 765              		.loc 1 392 1 view .LVU257
 766 0018 7047     		bx	lr
 767              		.cfi_endproc
ARM GAS  /tmp/ccKKjJpT.s 			page 22


 768              	.LFE127:
 770              		.section	.text.tli_color_key_init,"ax",%progbits
 771              		.align	1
 772              		.global	tli_color_key_init
 773              		.syntax unified
 774              		.thumb
 775              		.thumb_func
 777              	tli_color_key_init:
 778              	.LVL24:
 779              	.LFB128:
 393:Drivers/GD32F4xx_standard_peripheral/Source/gd32f4xx_tli.c **** 
 394:Drivers/GD32F4xx_standard_peripheral/Source/gd32f4xx_tli.c **** /*!
 395:Drivers/GD32F4xx_standard_peripheral/Source/gd32f4xx_tli.c ****     \brief    initialize TLI layer color key
 396:Drivers/GD32F4xx_standard_peripheral/Source/gd32f4xx_tli.c ****     \param[in]  layerx: LAYERx(x=0,1)
 397:Drivers/GD32F4xx_standard_peripheral/Source/gd32f4xx_tli.c ****     \param[in]  redkey: color key red
 398:Drivers/GD32F4xx_standard_peripheral/Source/gd32f4xx_tli.c ****     \param[in]  greenkey: color key green
 399:Drivers/GD32F4xx_standard_peripheral/Source/gd32f4xx_tli.c ****     \param[in]  bluekey: color key blue
 400:Drivers/GD32F4xx_standard_peripheral/Source/gd32f4xx_tli.c ****     \param[out] none
 401:Drivers/GD32F4xx_standard_peripheral/Source/gd32f4xx_tli.c ****     \retval     none
 402:Drivers/GD32F4xx_standard_peripheral/Source/gd32f4xx_tli.c **** */
 403:Drivers/GD32F4xx_standard_peripheral/Source/gd32f4xx_tli.c **** void tli_color_key_init(uint32_t layerx, uint8_t redkey, uint8_t greenkey, uint8_t bluekey)
 404:Drivers/GD32F4xx_standard_peripheral/Source/gd32f4xx_tli.c **** {
 780              		.loc 1 404 1 is_stmt 1 view -0
 781              		.cfi_startproc
 782              		@ args = 0, pretend = 0, frame = 0
 783              		@ frame_needed = 0, uses_anonymous_args = 0
 784              		@ link register save eliminated.
 405:Drivers/GD32F4xx_standard_peripheral/Source/gd32f4xx_tli.c ****     TLI_LxCKEY(layerx) = (((uint32_t)bluekey) | ((uint32_t)greenkey << 8U) | ((uint32_t)redkey << 1
 785              		.loc 1 405 5 view .LVU259
 786              		.loc 1 405 47 is_stmt 0 view .LVU260
 787 0000 43EA0223 		orr	r3, r3, r2, lsl #8
 788              	.LVL25:
 789              		.loc 1 405 76 view .LVU261
 790 0004 43EA0143 		orr	r3, r3, r1, lsl #16
 791              		.loc 1 405 24 view .LVU262
 792 0008 C0F89030 		str	r3, [r0, #144]
 406:Drivers/GD32F4xx_standard_peripheral/Source/gd32f4xx_tli.c **** }
 793              		.loc 1 406 1 view .LVU263
 794 000c 7047     		bx	lr
 795              		.cfi_endproc
 796              	.LFE128:
 798              		.section	.text.tli_layer_enable,"ax",%progbits
 799              		.align	1
 800              		.global	tli_layer_enable
 801              		.syntax unified
 802              		.thumb
 803              		.thumb_func
 805              	tli_layer_enable:
 806              	.LVL26:
 807              	.LFB129:
 407:Drivers/GD32F4xx_standard_peripheral/Source/gd32f4xx_tli.c **** 
 408:Drivers/GD32F4xx_standard_peripheral/Source/gd32f4xx_tli.c **** /*!
 409:Drivers/GD32F4xx_standard_peripheral/Source/gd32f4xx_tli.c ****     \brief    enable TLI layer
 410:Drivers/GD32F4xx_standard_peripheral/Source/gd32f4xx_tli.c ****     \param[in]  layerx: LAYERx(x=0,1)
 411:Drivers/GD32F4xx_standard_peripheral/Source/gd32f4xx_tli.c ****     \param[out] none
 412:Drivers/GD32F4xx_standard_peripheral/Source/gd32f4xx_tli.c ****     \retval     none
 413:Drivers/GD32F4xx_standard_peripheral/Source/gd32f4xx_tli.c **** */
ARM GAS  /tmp/ccKKjJpT.s 			page 23


 414:Drivers/GD32F4xx_standard_peripheral/Source/gd32f4xx_tli.c **** void tli_layer_enable(uint32_t layerx)
 415:Drivers/GD32F4xx_standard_peripheral/Source/gd32f4xx_tli.c **** {
 808              		.loc 1 415 1 is_stmt 1 view -0
 809              		.cfi_startproc
 810              		@ args = 0, pretend = 0, frame = 0
 811              		@ frame_needed = 0, uses_anonymous_args = 0
 812              		@ link register save eliminated.
 416:Drivers/GD32F4xx_standard_peripheral/Source/gd32f4xx_tli.c ****     TLI_LxCTL(layerx) |= TLI_LxCTL_LEN;
 813              		.loc 1 416 5 view .LVU265
 814 0000 D0F88430 		ldr	r3, [r0, #132]
 815              		.loc 1 416 23 is_stmt 0 view .LVU266
 816 0004 43F00103 		orr	r3, r3, #1
 817 0008 C0F88430 		str	r3, [r0, #132]
 417:Drivers/GD32F4xx_standard_peripheral/Source/gd32f4xx_tli.c **** }
 818              		.loc 1 417 1 view .LVU267
 819 000c 7047     		bx	lr
 820              		.cfi_endproc
 821              	.LFE129:
 823              		.section	.text.tli_layer_disable,"ax",%progbits
 824              		.align	1
 825              		.global	tli_layer_disable
 826              		.syntax unified
 827              		.thumb
 828              		.thumb_func
 830              	tli_layer_disable:
 831              	.LVL27:
 832              	.LFB130:
 418:Drivers/GD32F4xx_standard_peripheral/Source/gd32f4xx_tli.c **** 
 419:Drivers/GD32F4xx_standard_peripheral/Source/gd32f4xx_tli.c **** /*!
 420:Drivers/GD32F4xx_standard_peripheral/Source/gd32f4xx_tli.c ****     \brief    disable TLI layer
 421:Drivers/GD32F4xx_standard_peripheral/Source/gd32f4xx_tli.c ****     \param[in]  layerx: LAYERx(x=0,1)
 422:Drivers/GD32F4xx_standard_peripheral/Source/gd32f4xx_tli.c ****     \param[out] none
 423:Drivers/GD32F4xx_standard_peripheral/Source/gd32f4xx_tli.c ****     \retval     none
 424:Drivers/GD32F4xx_standard_peripheral/Source/gd32f4xx_tli.c **** */
 425:Drivers/GD32F4xx_standard_peripheral/Source/gd32f4xx_tli.c **** void tli_layer_disable(uint32_t layerx)
 426:Drivers/GD32F4xx_standard_peripheral/Source/gd32f4xx_tli.c **** {
 833              		.loc 1 426 1 is_stmt 1 view -0
 834              		.cfi_startproc
 835              		@ args = 0, pretend = 0, frame = 0
 836              		@ frame_needed = 0, uses_anonymous_args = 0
 837              		@ link register save eliminated.
 427:Drivers/GD32F4xx_standard_peripheral/Source/gd32f4xx_tli.c ****     TLI_LxCTL(layerx) &= ~(TLI_LxCTL_LEN);
 838              		.loc 1 427 5 view .LVU269
 839 0000 D0F88430 		ldr	r3, [r0, #132]
 840              		.loc 1 427 23 is_stmt 0 view .LVU270
 841 0004 23F00103 		bic	r3, r3, #1
 842 0008 C0F88430 		str	r3, [r0, #132]
 428:Drivers/GD32F4xx_standard_peripheral/Source/gd32f4xx_tli.c **** }
 843              		.loc 1 428 1 view .LVU271
 844 000c 7047     		bx	lr
 845              		.cfi_endproc
 846              	.LFE130:
 848              		.section	.text.tli_color_key_enable,"ax",%progbits
 849              		.align	1
 850              		.global	tli_color_key_enable
 851              		.syntax unified
 852              		.thumb
ARM GAS  /tmp/ccKKjJpT.s 			page 24


 853              		.thumb_func
 855              	tli_color_key_enable:
 856              	.LVL28:
 857              	.LFB131:
 429:Drivers/GD32F4xx_standard_peripheral/Source/gd32f4xx_tli.c **** 
 430:Drivers/GD32F4xx_standard_peripheral/Source/gd32f4xx_tli.c **** /*!
 431:Drivers/GD32F4xx_standard_peripheral/Source/gd32f4xx_tli.c ****     \brief    enable TLI layer color keying
 432:Drivers/GD32F4xx_standard_peripheral/Source/gd32f4xx_tli.c ****     \param[in]  layerx: LAYERx(x=0,1)
 433:Drivers/GD32F4xx_standard_peripheral/Source/gd32f4xx_tli.c ****     \param[out] none
 434:Drivers/GD32F4xx_standard_peripheral/Source/gd32f4xx_tli.c ****     \retval     none
 435:Drivers/GD32F4xx_standard_peripheral/Source/gd32f4xx_tli.c **** */
 436:Drivers/GD32F4xx_standard_peripheral/Source/gd32f4xx_tli.c **** void tli_color_key_enable(uint32_t layerx)
 437:Drivers/GD32F4xx_standard_peripheral/Source/gd32f4xx_tli.c **** {
 858              		.loc 1 437 1 is_stmt 1 view -0
 859              		.cfi_startproc
 860              		@ args = 0, pretend = 0, frame = 0
 861              		@ frame_needed = 0, uses_anonymous_args = 0
 862              		@ link register save eliminated.
 438:Drivers/GD32F4xx_standard_peripheral/Source/gd32f4xx_tli.c ****     TLI_LxCTL(layerx) |= TLI_LxCTL_CKEYEN;
 863              		.loc 1 438 5 view .LVU273
 864 0000 D0F88430 		ldr	r3, [r0, #132]
 865              		.loc 1 438 23 is_stmt 0 view .LVU274
 866 0004 43F00203 		orr	r3, r3, #2
 867 0008 C0F88430 		str	r3, [r0, #132]
 439:Drivers/GD32F4xx_standard_peripheral/Source/gd32f4xx_tli.c **** }
 868              		.loc 1 439 1 view .LVU275
 869 000c 7047     		bx	lr
 870              		.cfi_endproc
 871              	.LFE131:
 873              		.section	.text.tli_color_key_disable,"ax",%progbits
 874              		.align	1
 875              		.global	tli_color_key_disable
 876              		.syntax unified
 877              		.thumb
 878              		.thumb_func
 880              	tli_color_key_disable:
 881              	.LVL29:
 882              	.LFB132:
 440:Drivers/GD32F4xx_standard_peripheral/Source/gd32f4xx_tli.c **** 
 441:Drivers/GD32F4xx_standard_peripheral/Source/gd32f4xx_tli.c **** /*!
 442:Drivers/GD32F4xx_standard_peripheral/Source/gd32f4xx_tli.c ****     \brief    disable TLI layer color keying
 443:Drivers/GD32F4xx_standard_peripheral/Source/gd32f4xx_tli.c ****     \param[in]  layerx: LAYERx(x=0,1)
 444:Drivers/GD32F4xx_standard_peripheral/Source/gd32f4xx_tli.c ****     \param[out] none
 445:Drivers/GD32F4xx_standard_peripheral/Source/gd32f4xx_tli.c ****     \retval     none
 446:Drivers/GD32F4xx_standard_peripheral/Source/gd32f4xx_tli.c **** */
 447:Drivers/GD32F4xx_standard_peripheral/Source/gd32f4xx_tli.c **** void tli_color_key_disable(uint32_t layerx)
 448:Drivers/GD32F4xx_standard_peripheral/Source/gd32f4xx_tli.c **** {
 883              		.loc 1 448 1 is_stmt 1 view -0
 884              		.cfi_startproc
 885              		@ args = 0, pretend = 0, frame = 0
 886              		@ frame_needed = 0, uses_anonymous_args = 0
 887              		@ link register save eliminated.
 449:Drivers/GD32F4xx_standard_peripheral/Source/gd32f4xx_tli.c ****     TLI_LxCTL(layerx) &= ~(TLI_LxCTL_CKEYEN);
 888              		.loc 1 449 5 view .LVU277
 889 0000 D0F88430 		ldr	r3, [r0, #132]
 890              		.loc 1 449 23 is_stmt 0 view .LVU278
 891 0004 23F00203 		bic	r3, r3, #2
ARM GAS  /tmp/ccKKjJpT.s 			page 25


 892 0008 C0F88430 		str	r3, [r0, #132]
 450:Drivers/GD32F4xx_standard_peripheral/Source/gd32f4xx_tli.c **** }
 893              		.loc 1 450 1 view .LVU279
 894 000c 7047     		bx	lr
 895              		.cfi_endproc
 896              	.LFE132:
 898              		.section	.text.tli_lut_enable,"ax",%progbits
 899              		.align	1
 900              		.global	tli_lut_enable
 901              		.syntax unified
 902              		.thumb
 903              		.thumb_func
 905              	tli_lut_enable:
 906              	.LVL30:
 907              	.LFB133:
 451:Drivers/GD32F4xx_standard_peripheral/Source/gd32f4xx_tli.c **** 
 452:Drivers/GD32F4xx_standard_peripheral/Source/gd32f4xx_tli.c **** /*!
 453:Drivers/GD32F4xx_standard_peripheral/Source/gd32f4xx_tli.c ****     \brief    enable TLI layer LUT
 454:Drivers/GD32F4xx_standard_peripheral/Source/gd32f4xx_tli.c ****     \param[in]  layerx: LAYERx(x=0,1)
 455:Drivers/GD32F4xx_standard_peripheral/Source/gd32f4xx_tli.c ****     \param[out] none
 456:Drivers/GD32F4xx_standard_peripheral/Source/gd32f4xx_tli.c ****     \retval     none
 457:Drivers/GD32F4xx_standard_peripheral/Source/gd32f4xx_tli.c **** */
 458:Drivers/GD32F4xx_standard_peripheral/Source/gd32f4xx_tli.c **** void tli_lut_enable(uint32_t layerx)
 459:Drivers/GD32F4xx_standard_peripheral/Source/gd32f4xx_tli.c **** {
 908              		.loc 1 459 1 is_stmt 1 view -0
 909              		.cfi_startproc
 910              		@ args = 0, pretend = 0, frame = 0
 911              		@ frame_needed = 0, uses_anonymous_args = 0
 912              		@ link register save eliminated.
 460:Drivers/GD32F4xx_standard_peripheral/Source/gd32f4xx_tli.c ****     TLI_LxCTL(layerx) |= TLI_LxCTL_LUTEN;
 913              		.loc 1 460 5 view .LVU281
 914 0000 D0F88430 		ldr	r3, [r0, #132]
 915              		.loc 1 460 23 is_stmt 0 view .LVU282
 916 0004 43F01003 		orr	r3, r3, #16
 917 0008 C0F88430 		str	r3, [r0, #132]
 461:Drivers/GD32F4xx_standard_peripheral/Source/gd32f4xx_tli.c **** }
 918              		.loc 1 461 1 view .LVU283
 919 000c 7047     		bx	lr
 920              		.cfi_endproc
 921              	.LFE133:
 923              		.section	.text.tli_lut_disable,"ax",%progbits
 924              		.align	1
 925              		.global	tli_lut_disable
 926              		.syntax unified
 927              		.thumb
 928              		.thumb_func
 930              	tli_lut_disable:
 931              	.LVL31:
 932              	.LFB134:
 462:Drivers/GD32F4xx_standard_peripheral/Source/gd32f4xx_tli.c **** 
 463:Drivers/GD32F4xx_standard_peripheral/Source/gd32f4xx_tli.c **** /*!
 464:Drivers/GD32F4xx_standard_peripheral/Source/gd32f4xx_tli.c ****     \brief    disable TLI layer LUT
 465:Drivers/GD32F4xx_standard_peripheral/Source/gd32f4xx_tli.c ****     \param[in]  layerx: LAYERx(x=0,1)
 466:Drivers/GD32F4xx_standard_peripheral/Source/gd32f4xx_tli.c ****     \param[out] none
 467:Drivers/GD32F4xx_standard_peripheral/Source/gd32f4xx_tli.c ****     \retval     none
 468:Drivers/GD32F4xx_standard_peripheral/Source/gd32f4xx_tli.c **** */
 469:Drivers/GD32F4xx_standard_peripheral/Source/gd32f4xx_tli.c **** void tli_lut_disable(uint32_t layerx)
ARM GAS  /tmp/ccKKjJpT.s 			page 26


 470:Drivers/GD32F4xx_standard_peripheral/Source/gd32f4xx_tli.c **** {
 933              		.loc 1 470 1 is_stmt 1 view -0
 934              		.cfi_startproc
 935              		@ args = 0, pretend = 0, frame = 0
 936              		@ frame_needed = 0, uses_anonymous_args = 0
 937              		@ link register save eliminated.
 471:Drivers/GD32F4xx_standard_peripheral/Source/gd32f4xx_tli.c ****     TLI_LxCTL(layerx) &= ~(TLI_LxCTL_LUTEN);
 938              		.loc 1 471 5 view .LVU285
 939 0000 D0F88430 		ldr	r3, [r0, #132]
 940              		.loc 1 471 23 is_stmt 0 view .LVU286
 941 0004 23F01003 		bic	r3, r3, #16
 942 0008 C0F88430 		str	r3, [r0, #132]
 472:Drivers/GD32F4xx_standard_peripheral/Source/gd32f4xx_tli.c **** }
 943              		.loc 1 472 1 view .LVU287
 944 000c 7047     		bx	lr
 945              		.cfi_endproc
 946              	.LFE134:
 948              		.section	.text.tli_line_mark_set,"ax",%progbits
 949              		.align	1
 950              		.global	tli_line_mark_set
 951              		.syntax unified
 952              		.thumb
 953              		.thumb_func
 955              	tli_line_mark_set:
 956              	.LVL32:
 957              	.LFB135:
 473:Drivers/GD32F4xx_standard_peripheral/Source/gd32f4xx_tli.c **** 
 474:Drivers/GD32F4xx_standard_peripheral/Source/gd32f4xx_tli.c **** /*!
 475:Drivers/GD32F4xx_standard_peripheral/Source/gd32f4xx_tli.c ****     \brief    set line mark value
 476:Drivers/GD32F4xx_standard_peripheral/Source/gd32f4xx_tli.c ****     \param[in]  line_num: line number
 477:Drivers/GD32F4xx_standard_peripheral/Source/gd32f4xx_tli.c ****     \param[out] none
 478:Drivers/GD32F4xx_standard_peripheral/Source/gd32f4xx_tli.c ****     \retval     none
 479:Drivers/GD32F4xx_standard_peripheral/Source/gd32f4xx_tli.c **** */
 480:Drivers/GD32F4xx_standard_peripheral/Source/gd32f4xx_tli.c **** void tli_line_mark_set(uint16_t line_num)
 481:Drivers/GD32F4xx_standard_peripheral/Source/gd32f4xx_tli.c **** {
 958              		.loc 1 481 1 is_stmt 1 view -0
 959              		.cfi_startproc
 960              		@ args = 0, pretend = 0, frame = 0
 961              		@ frame_needed = 0, uses_anonymous_args = 0
 962              		@ link register save eliminated.
 482:Drivers/GD32F4xx_standard_peripheral/Source/gd32f4xx_tli.c ****     TLI_LM &= ~(TLI_LM_LM);
 963              		.loc 1 482 5 view .LVU289
 964 0000 054A     		ldr	r2, .L45
 965 0002 D2F84038 		ldr	r3, [r2, #2112]
 966              		.loc 1 482 12 is_stmt 0 view .LVU290
 967 0006 23F4FF63 		bic	r3, r3, #2040
 968 000a 23F00703 		bic	r3, r3, #7
 969 000e C2F84038 		str	r3, [r2, #2112]
 483:Drivers/GD32F4xx_standard_peripheral/Source/gd32f4xx_tli.c ****     TLI_LM = (uint32_t)line_num;
 970              		.loc 1 483 5 is_stmt 1 view .LVU291
 971              		.loc 1 483 12 is_stmt 0 view .LVU292
 972 0012 C2F84008 		str	r0, [r2, #2112]
 484:Drivers/GD32F4xx_standard_peripheral/Source/gd32f4xx_tli.c **** }
 973              		.loc 1 484 1 view .LVU293
 974 0016 7047     		bx	lr
 975              	.L46:
 976              		.align	2
ARM GAS  /tmp/ccKKjJpT.s 			page 27


 977              	.L45:
 978 0018 00600140 		.word	1073831936
 979              		.cfi_endproc
 980              	.LFE135:
 982              		.section	.text.tli_current_pos_get,"ax",%progbits
 983              		.align	1
 984              		.global	tli_current_pos_get
 985              		.syntax unified
 986              		.thumb
 987              		.thumb_func
 989              	tli_current_pos_get:
 990              	.LFB136:
 485:Drivers/GD32F4xx_standard_peripheral/Source/gd32f4xx_tli.c **** 
 486:Drivers/GD32F4xx_standard_peripheral/Source/gd32f4xx_tli.c **** /*!
 487:Drivers/GD32F4xx_standard_peripheral/Source/gd32f4xx_tli.c ****     \brief    get current displayed position
 488:Drivers/GD32F4xx_standard_peripheral/Source/gd32f4xx_tli.c ****     \param[in]  none
 489:Drivers/GD32F4xx_standard_peripheral/Source/gd32f4xx_tli.c ****     \param[out] none
 490:Drivers/GD32F4xx_standard_peripheral/Source/gd32f4xx_tli.c ****     \retval     position of current pixel
 491:Drivers/GD32F4xx_standard_peripheral/Source/gd32f4xx_tli.c **** */
 492:Drivers/GD32F4xx_standard_peripheral/Source/gd32f4xx_tli.c **** uint32_t tli_current_pos_get(void)
 493:Drivers/GD32F4xx_standard_peripheral/Source/gd32f4xx_tli.c **** {
 991              		.loc 1 493 1 is_stmt 1 view -0
 992              		.cfi_startproc
 993              		@ args = 0, pretend = 0, frame = 0
 994              		@ frame_needed = 0, uses_anonymous_args = 0
 995              		@ link register save eliminated.
 494:Drivers/GD32F4xx_standard_peripheral/Source/gd32f4xx_tli.c ****     return TLI_CPPOS;
 996              		.loc 1 494 5 view .LVU295
 997              		.loc 1 494 12 is_stmt 0 view .LVU296
 998 0000 014B     		ldr	r3, .L48
 999 0002 D3F84408 		ldr	r0, [r3, #2116]
 495:Drivers/GD32F4xx_standard_peripheral/Source/gd32f4xx_tli.c **** }
 1000              		.loc 1 495 1 view .LVU297
 1001 0006 7047     		bx	lr
 1002              	.L49:
 1003              		.align	2
 1004              	.L48:
 1005 0008 00600140 		.word	1073831936
 1006              		.cfi_endproc
 1007              	.LFE136:
 1009              		.section	.text.tli_interrupt_enable,"ax",%progbits
 1010              		.align	1
 1011              		.global	tli_interrupt_enable
 1012              		.syntax unified
 1013              		.thumb
 1014              		.thumb_func
 1016              	tli_interrupt_enable:
 1017              	.LVL33:
 1018              	.LFB137:
 496:Drivers/GD32F4xx_standard_peripheral/Source/gd32f4xx_tli.c **** 
 497:Drivers/GD32F4xx_standard_peripheral/Source/gd32f4xx_tli.c **** /*!
 498:Drivers/GD32F4xx_standard_peripheral/Source/gd32f4xx_tli.c ****     \brief    enable TLI interrupt
 499:Drivers/GD32F4xx_standard_peripheral/Source/gd32f4xx_tli.c ****     \param[in]  int_flag: TLI interrupt flags
 500:Drivers/GD32F4xx_standard_peripheral/Source/gd32f4xx_tli.c ****                 one or more parameters can be selected which are shown as below:
 501:Drivers/GD32F4xx_standard_peripheral/Source/gd32f4xx_tli.c ****       \arg        TLI_INT_LM: line mark interrupt
 502:Drivers/GD32F4xx_standard_peripheral/Source/gd32f4xx_tli.c ****       \arg        TLI_INT_FE: FIFO error interrupt
 503:Drivers/GD32F4xx_standard_peripheral/Source/gd32f4xx_tli.c ****       \arg        TLI_INT_TE: transaction error interrupt
ARM GAS  /tmp/ccKKjJpT.s 			page 28


 504:Drivers/GD32F4xx_standard_peripheral/Source/gd32f4xx_tli.c ****       \arg        TLI_INT_LCR: layer configuration reloaded interrupt
 505:Drivers/GD32F4xx_standard_peripheral/Source/gd32f4xx_tli.c ****     \param[out] none
 506:Drivers/GD32F4xx_standard_peripheral/Source/gd32f4xx_tli.c ****     \retval     none
 507:Drivers/GD32F4xx_standard_peripheral/Source/gd32f4xx_tli.c **** */
 508:Drivers/GD32F4xx_standard_peripheral/Source/gd32f4xx_tli.c **** void tli_interrupt_enable(uint32_t int_flag)
 509:Drivers/GD32F4xx_standard_peripheral/Source/gd32f4xx_tli.c **** {
 1019              		.loc 1 509 1 is_stmt 1 view -0
 1020              		.cfi_startproc
 1021              		@ args = 0, pretend = 0, frame = 0
 1022              		@ frame_needed = 0, uses_anonymous_args = 0
 1023              		@ link register save eliminated.
 510:Drivers/GD32F4xx_standard_peripheral/Source/gd32f4xx_tli.c ****     TLI_INTEN |= (int_flag);
 1024              		.loc 1 510 5 view .LVU299
 1025 0000 034A     		ldr	r2, .L51
 1026 0002 D2F83438 		ldr	r3, [r2, #2100]
 1027              		.loc 1 510 15 is_stmt 0 view .LVU300
 1028 0006 0343     		orrs	r3, r3, r0
 1029 0008 C2F83438 		str	r3, [r2, #2100]
 511:Drivers/GD32F4xx_standard_peripheral/Source/gd32f4xx_tli.c **** }
 1030              		.loc 1 511 1 view .LVU301
 1031 000c 7047     		bx	lr
 1032              	.L52:
 1033 000e 00BF     		.align	2
 1034              	.L51:
 1035 0010 00600140 		.word	1073831936
 1036              		.cfi_endproc
 1037              	.LFE137:
 1039              		.section	.text.tli_interrupt_disable,"ax",%progbits
 1040              		.align	1
 1041              		.global	tli_interrupt_disable
 1042              		.syntax unified
 1043              		.thumb
 1044              		.thumb_func
 1046              	tli_interrupt_disable:
 1047              	.LVL34:
 1048              	.LFB138:
 512:Drivers/GD32F4xx_standard_peripheral/Source/gd32f4xx_tli.c **** 
 513:Drivers/GD32F4xx_standard_peripheral/Source/gd32f4xx_tli.c **** /*!
 514:Drivers/GD32F4xx_standard_peripheral/Source/gd32f4xx_tli.c ****     \brief    disable TLI interrupt
 515:Drivers/GD32F4xx_standard_peripheral/Source/gd32f4xx_tli.c ****     \param[in]  int_flag: TLI interrupt flags
 516:Drivers/GD32F4xx_standard_peripheral/Source/gd32f4xx_tli.c ****                 one or more parameters can be selected which are shown as below:
 517:Drivers/GD32F4xx_standard_peripheral/Source/gd32f4xx_tli.c ****       \arg        TLI_INT_LM: line mark interrupt
 518:Drivers/GD32F4xx_standard_peripheral/Source/gd32f4xx_tli.c ****       \arg        TLI_INT_FE: FIFO error interrupt
 519:Drivers/GD32F4xx_standard_peripheral/Source/gd32f4xx_tli.c ****       \arg        TLI_INT_TE: transaction error interrupt
 520:Drivers/GD32F4xx_standard_peripheral/Source/gd32f4xx_tli.c ****       \arg        TLI_INT_LCR: layer configuration reloaded interrupt
 521:Drivers/GD32F4xx_standard_peripheral/Source/gd32f4xx_tli.c ****     \param[out] none
 522:Drivers/GD32F4xx_standard_peripheral/Source/gd32f4xx_tli.c ****     \retval     none
 523:Drivers/GD32F4xx_standard_peripheral/Source/gd32f4xx_tli.c **** */
 524:Drivers/GD32F4xx_standard_peripheral/Source/gd32f4xx_tli.c **** void tli_interrupt_disable(uint32_t int_flag)
 525:Drivers/GD32F4xx_standard_peripheral/Source/gd32f4xx_tli.c **** {
 1049              		.loc 1 525 1 is_stmt 1 view -0
 1050              		.cfi_startproc
 1051              		@ args = 0, pretend = 0, frame = 0
 1052              		@ frame_needed = 0, uses_anonymous_args = 0
 1053              		@ link register save eliminated.
 526:Drivers/GD32F4xx_standard_peripheral/Source/gd32f4xx_tli.c ****     TLI_INTEN &= ~(int_flag);
 1054              		.loc 1 526 5 view .LVU303
ARM GAS  /tmp/ccKKjJpT.s 			page 29


 1055 0000 034A     		ldr	r2, .L54
 1056 0002 D2F83438 		ldr	r3, [r2, #2100]
 1057              		.loc 1 526 15 is_stmt 0 view .LVU304
 1058 0006 23EA0003 		bic	r3, r3, r0
 1059 000a C2F83438 		str	r3, [r2, #2100]
 527:Drivers/GD32F4xx_standard_peripheral/Source/gd32f4xx_tli.c **** }
 1060              		.loc 1 527 1 view .LVU305
 1061 000e 7047     		bx	lr
 1062              	.L55:
 1063              		.align	2
 1064              	.L54:
 1065 0010 00600140 		.word	1073831936
 1066              		.cfi_endproc
 1067              	.LFE138:
 1069              		.section	.text.tli_interrupt_flag_get,"ax",%progbits
 1070              		.align	1
 1071              		.global	tli_interrupt_flag_get
 1072              		.syntax unified
 1073              		.thumb
 1074              		.thumb_func
 1076              	tli_interrupt_flag_get:
 1077              	.LVL35:
 1078              	.LFB139:
 528:Drivers/GD32F4xx_standard_peripheral/Source/gd32f4xx_tli.c **** 
 529:Drivers/GD32F4xx_standard_peripheral/Source/gd32f4xx_tli.c **** /*!
 530:Drivers/GD32F4xx_standard_peripheral/Source/gd32f4xx_tli.c ****     \brief    get TLI interrupt flag
 531:Drivers/GD32F4xx_standard_peripheral/Source/gd32f4xx_tli.c ****     \param[in]  int_flag: TLI interrupt flags
 532:Drivers/GD32F4xx_standard_peripheral/Source/gd32f4xx_tli.c ****                 one or more parameters can be selected which are shown as below:
 533:Drivers/GD32F4xx_standard_peripheral/Source/gd32f4xx_tli.c ****       \arg        TLI_INT_FLAG_LM: line mark interrupt flag
 534:Drivers/GD32F4xx_standard_peripheral/Source/gd32f4xx_tli.c ****       \arg        TLI_INT_FLAG_FE: FIFO error interrupt flag
 535:Drivers/GD32F4xx_standard_peripheral/Source/gd32f4xx_tli.c ****       \arg        TLI_INT_FLAG_TE: transaction error interrupt flag
 536:Drivers/GD32F4xx_standard_peripheral/Source/gd32f4xx_tli.c ****       \arg        TLI_INT_FLAG_LCR: layer configuration reloaded interrupt flag
 537:Drivers/GD32F4xx_standard_peripheral/Source/gd32f4xx_tli.c ****     \param[out] none
 538:Drivers/GD32F4xx_standard_peripheral/Source/gd32f4xx_tli.c ****     \retval     FlagStatus: SET or RESET
 539:Drivers/GD32F4xx_standard_peripheral/Source/gd32f4xx_tli.c **** */
 540:Drivers/GD32F4xx_standard_peripheral/Source/gd32f4xx_tli.c **** FlagStatus tli_interrupt_flag_get(uint32_t int_flag)
 541:Drivers/GD32F4xx_standard_peripheral/Source/gd32f4xx_tli.c **** {
 1079              		.loc 1 541 1 is_stmt 1 view -0
 1080              		.cfi_startproc
 1081              		@ args = 0, pretend = 0, frame = 0
 1082              		@ frame_needed = 0, uses_anonymous_args = 0
 1083              		@ link register save eliminated.
 542:Drivers/GD32F4xx_standard_peripheral/Source/gd32f4xx_tli.c ****     uint32_t state;
 1084              		.loc 1 542 5 view .LVU307
 543:Drivers/GD32F4xx_standard_peripheral/Source/gd32f4xx_tli.c ****     state = TLI_INTF;
 1085              		.loc 1 543 5 view .LVU308
 1086              		.loc 1 543 11 is_stmt 0 view .LVU309
 1087 0000 0649     		ldr	r1, .L59
 541:Drivers/GD32F4xx_standard_peripheral/Source/gd32f4xx_tli.c ****     uint32_t state;
 1088              		.loc 1 541 1 view .LVU310
 1089 0002 0246     		mov	r2, r0
 1090              		.loc 1 543 11 view .LVU311
 1091 0004 D1F83808 		ldr	r0, [r1, #2104]
 1092              	.LVL36:
 544:Drivers/GD32F4xx_standard_peripheral/Source/gd32f4xx_tli.c ****     if(state & int_flag) {
 1093              		.loc 1 544 5 is_stmt 1 view .LVU312
 1094              		.loc 1 544 7 is_stmt 0 view .LVU313
ARM GAS  /tmp/ccKKjJpT.s 			page 30


 1095 0008 1040     		ands	r0, r0, r2
 1096              	.LVL37:
 1097              		.loc 1 544 7 view .LVU314
 1098 000a 05D0     		beq	.L57
 545:Drivers/GD32F4xx_standard_peripheral/Source/gd32f4xx_tli.c ****         state = TLI_INTEN;
 1099              		.loc 1 545 9 is_stmt 1 view .LVU315
 1100              		.loc 1 545 15 is_stmt 0 view .LVU316
 1101 000c D1F83438 		ldr	r3, [r1, #2100]
 1102              	.LVL38:
 546:Drivers/GD32F4xx_standard_peripheral/Source/gd32f4xx_tli.c ****         if(state & int_flag) {
 1103              		.loc 1 546 9 is_stmt 1 view .LVU317
 1104              		.loc 1 546 11 is_stmt 0 view .LVU318
 1105 0010 1A42     		tst	r2, r3
 1106 0012 14BF     		ite	ne
 1107 0014 0120     		movne	r0, #1
 1108 0016 0020     		moveq	r0, #0
 1109              	.LVL39:
 1110              	.L57:
 547:Drivers/GD32F4xx_standard_peripheral/Source/gd32f4xx_tli.c ****             return SET;
 548:Drivers/GD32F4xx_standard_peripheral/Source/gd32f4xx_tli.c ****         }
 549:Drivers/GD32F4xx_standard_peripheral/Source/gd32f4xx_tli.c ****     }
 550:Drivers/GD32F4xx_standard_peripheral/Source/gd32f4xx_tli.c ****     return RESET;
 551:Drivers/GD32F4xx_standard_peripheral/Source/gd32f4xx_tli.c **** }
 1111              		.loc 1 551 1 view .LVU319
 1112 0018 7047     		bx	lr
 1113              	.L60:
 1114 001a 00BF     		.align	2
 1115              	.L59:
 1116 001c 00600140 		.word	1073831936
 1117              		.cfi_endproc
 1118              	.LFE139:
 1120              		.section	.text.tli_interrupt_flag_clear,"ax",%progbits
 1121              		.align	1
 1122              		.global	tli_interrupt_flag_clear
 1123              		.syntax unified
 1124              		.thumb
 1125              		.thumb_func
 1127              	tli_interrupt_flag_clear:
 1128              	.LVL40:
 1129              	.LFB140:
 552:Drivers/GD32F4xx_standard_peripheral/Source/gd32f4xx_tli.c **** 
 553:Drivers/GD32F4xx_standard_peripheral/Source/gd32f4xx_tli.c **** /*!
 554:Drivers/GD32F4xx_standard_peripheral/Source/gd32f4xx_tli.c ****     \brief    clear TLI interrupt flag
 555:Drivers/GD32F4xx_standard_peripheral/Source/gd32f4xx_tli.c ****     \param[in]  int_flag: TLI interrupt flags
 556:Drivers/GD32F4xx_standard_peripheral/Source/gd32f4xx_tli.c ****                 one or more parameters can be selected which are shown as below:
 557:Drivers/GD32F4xx_standard_peripheral/Source/gd32f4xx_tli.c ****       \arg        TLI_INT_FLAG_LM: line mark interrupt flag
 558:Drivers/GD32F4xx_standard_peripheral/Source/gd32f4xx_tli.c ****       \arg        TLI_INT_FLAG_FE: FIFO error interrupt flag
 559:Drivers/GD32F4xx_standard_peripheral/Source/gd32f4xx_tli.c ****       \arg        TLI_INT_FLAG_TE: transaction error interrupt flag
 560:Drivers/GD32F4xx_standard_peripheral/Source/gd32f4xx_tli.c ****       \arg        TLI_INT_FLAG_LCR: layer configuration reloaded interrupt flag
 561:Drivers/GD32F4xx_standard_peripheral/Source/gd32f4xx_tli.c ****     \param[out] none
 562:Drivers/GD32F4xx_standard_peripheral/Source/gd32f4xx_tli.c ****     \retval     none
 563:Drivers/GD32F4xx_standard_peripheral/Source/gd32f4xx_tli.c **** */
 564:Drivers/GD32F4xx_standard_peripheral/Source/gd32f4xx_tli.c **** void tli_interrupt_flag_clear(uint32_t int_flag)
 565:Drivers/GD32F4xx_standard_peripheral/Source/gd32f4xx_tli.c **** {
 1130              		.loc 1 565 1 is_stmt 1 view -0
 1131              		.cfi_startproc
 1132              		@ args = 0, pretend = 0, frame = 0
ARM GAS  /tmp/ccKKjJpT.s 			page 31


 1133              		@ frame_needed = 0, uses_anonymous_args = 0
 1134              		@ link register save eliminated.
 566:Drivers/GD32F4xx_standard_peripheral/Source/gd32f4xx_tli.c ****     TLI_INTC |= (int_flag);
 1135              		.loc 1 566 5 view .LVU321
 1136 0000 034A     		ldr	r2, .L62
 1137 0002 D2F83C38 		ldr	r3, [r2, #2108]
 1138              		.loc 1 566 14 is_stmt 0 view .LVU322
 1139 0006 0343     		orrs	r3, r3, r0
 1140 0008 C2F83C38 		str	r3, [r2, #2108]
 567:Drivers/GD32F4xx_standard_peripheral/Source/gd32f4xx_tli.c **** }
 1141              		.loc 1 567 1 view .LVU323
 1142 000c 7047     		bx	lr
 1143              	.L63:
 1144 000e 00BF     		.align	2
 1145              	.L62:
 1146 0010 00600140 		.word	1073831936
 1147              		.cfi_endproc
 1148              	.LFE140:
 1150              		.section	.text.tli_flag_get,"ax",%progbits
 1151              		.align	1
 1152              		.global	tli_flag_get
 1153              		.syntax unified
 1154              		.thumb
 1155              		.thumb_func
 1157              	tli_flag_get:
 1158              	.LVL41:
 1159              	.LFB141:
 568:Drivers/GD32F4xx_standard_peripheral/Source/gd32f4xx_tli.c **** 
 569:Drivers/GD32F4xx_standard_peripheral/Source/gd32f4xx_tli.c **** /*!
 570:Drivers/GD32F4xx_standard_peripheral/Source/gd32f4xx_tli.c ****     \brief    get TLI flag or state in TLI_INTF register or TLI_STAT register
 571:Drivers/GD32F4xx_standard_peripheral/Source/gd32f4xx_tli.c ****     \param[in]  flag: TLI flags or states
 572:Drivers/GD32F4xx_standard_peripheral/Source/gd32f4xx_tli.c ****                 only one parameter can be selected which is shown as below:
 573:Drivers/GD32F4xx_standard_peripheral/Source/gd32f4xx_tli.c ****       \arg        TLI_FLAG_VDE: current VDE state
 574:Drivers/GD32F4xx_standard_peripheral/Source/gd32f4xx_tli.c ****       \arg        TLI_FLAG_HDE: current HDE state
 575:Drivers/GD32F4xx_standard_peripheral/Source/gd32f4xx_tli.c ****       \arg        TLI_FLAG_VS: current VS status of the TLI
 576:Drivers/GD32F4xx_standard_peripheral/Source/gd32f4xx_tli.c ****       \arg        TLI_FLAG_HS: current HS status of the TLI
 577:Drivers/GD32F4xx_standard_peripheral/Source/gd32f4xx_tli.c ****       \arg        TLI_FLAG_LM: line mark interrupt flag
 578:Drivers/GD32F4xx_standard_peripheral/Source/gd32f4xx_tli.c ****       \arg        TLI_FLAG_FE: FIFO error interrupt flag
 579:Drivers/GD32F4xx_standard_peripheral/Source/gd32f4xx_tli.c ****       \arg        TLI_FLAG_TE: transaction error interrupt flag
 580:Drivers/GD32F4xx_standard_peripheral/Source/gd32f4xx_tli.c ****       \arg        TLI_FLAG_LCR: layer configuration reloaded interrupt flag
 581:Drivers/GD32F4xx_standard_peripheral/Source/gd32f4xx_tli.c ****     \param[out] none
 582:Drivers/GD32F4xx_standard_peripheral/Source/gd32f4xx_tli.c ****     \retval     FlagStatus: SET or RESET
 583:Drivers/GD32F4xx_standard_peripheral/Source/gd32f4xx_tli.c **** */
 584:Drivers/GD32F4xx_standard_peripheral/Source/gd32f4xx_tli.c **** FlagStatus tli_flag_get(uint32_t flag)
 585:Drivers/GD32F4xx_standard_peripheral/Source/gd32f4xx_tli.c **** {
 1160              		.loc 1 585 1 is_stmt 1 view -0
 1161              		.cfi_startproc
 1162              		@ args = 0, pretend = 0, frame = 0
 1163              		@ frame_needed = 0, uses_anonymous_args = 0
 1164              		@ link register save eliminated.
 586:Drivers/GD32F4xx_standard_peripheral/Source/gd32f4xx_tli.c ****     uint32_t stat;
 1165              		.loc 1 586 5 view .LVU325
 587:Drivers/GD32F4xx_standard_peripheral/Source/gd32f4xx_tli.c ****     /* choose which register to get flag or state */
 588:Drivers/GD32F4xx_standard_peripheral/Source/gd32f4xx_tli.c ****     if(flag >> 31U) {
 1166              		.loc 1 588 5 view .LVU326
 1167 0000 054B     		ldr	r3, .L67
 589:Drivers/GD32F4xx_standard_peripheral/Source/gd32f4xx_tli.c ****         stat = TLI_INTF;
ARM GAS  /tmp/ccKKjJpT.s 			page 32


 1168              		.loc 1 589 9 view .LVU327
 588:Drivers/GD32F4xx_standard_peripheral/Source/gd32f4xx_tli.c ****         stat = TLI_INTF;
 1169              		.loc 1 588 7 is_stmt 0 view .LVU328
 1170 0002 0028     		cmp	r0, #0
 1171              		.loc 1 589 14 view .LVU329
 1172 0004 B4BF     		ite	lt
 1173 0006 D3F83838 		ldrlt	r3, [r3, #2104]
 1174              	.LVL42:
 590:Drivers/GD32F4xx_standard_peripheral/Source/gd32f4xx_tli.c ****     } else {
 591:Drivers/GD32F4xx_standard_peripheral/Source/gd32f4xx_tli.c ****         stat = TLI_STAT;
 1175              		.loc 1 591 9 is_stmt 1 view .LVU330
 1176              		.loc 1 591 14 is_stmt 0 view .LVU331
 1177 000a D3F84838 		ldrge	r3, [r3, #2120]
 1178              	.LVL43:
 592:Drivers/GD32F4xx_standard_peripheral/Source/gd32f4xx_tli.c ****     }
 593:Drivers/GD32F4xx_standard_peripheral/Source/gd32f4xx_tli.c ****     if(flag & stat) {
 1179              		.loc 1 593 5 is_stmt 1 view .LVU332
 1180              		.loc 1 593 7 is_stmt 0 view .LVU333
 1181 000e 0342     		tst	r3, r0
 594:Drivers/GD32F4xx_standard_peripheral/Source/gd32f4xx_tli.c ****         return SET;
 595:Drivers/GD32F4xx_standard_peripheral/Source/gd32f4xx_tli.c ****     } else {
 596:Drivers/GD32F4xx_standard_peripheral/Source/gd32f4xx_tli.c ****         return RESET;
 597:Drivers/GD32F4xx_standard_peripheral/Source/gd32f4xx_tli.c ****     }
 598:Drivers/GD32F4xx_standard_peripheral/Source/gd32f4xx_tli.c **** }
 1182              		.loc 1 598 1 view .LVU334
 1183 0010 14BF     		ite	ne
 1184 0012 0120     		movne	r0, #1
 1185              	.LVL44:
 1186              		.loc 1 598 1 view .LVU335
 1187 0014 0020     		moveq	r0, #0
 1188 0016 7047     		bx	lr
 1189              	.L68:
 1190              		.align	2
 1191              	.L67:
 1192 0018 00600140 		.word	1073831936
 1193              		.cfi_endproc
 1194              	.LFE141:
 1196              		.text
 1197              	.Letext0:
 1198              		.file 2 "/usr/arm-none-eabi/include/machine/_default_types.h"
 1199              		.file 3 "/usr/arm-none-eabi/include/sys/_stdint.h"
 1200              		.file 4 "Drivers/CMSIS/Include/gd32f4xx.h"
 1201              		.file 5 "Drivers/GD32F4xx_standard_peripheral/Include/gd32f4xx_rcu.h"
 1202              		.file 6 "Drivers/GD32F4xx_standard_peripheral/Include/gd32f4xx_tli.h"
ARM GAS  /tmp/ccKKjJpT.s 			page 33

