ARM GAS  /tmp/ccWYTPow.s 			page 1


   1              		.cpu cortex-m4
   2              		.arch armv7e-m
   3              		.fpu softvfp
   4              		.eabi_attribute 20, 1
   5              		.eabi_attribute 21, 1
   6              		.eabi_attribute 23, 3
   7              		.eabi_attribute 24, 1
   8              		.eabi_attribute 25, 1
   9              		.eabi_attribute 26, 1
  10              		.eabi_attribute 30, 4
  11              		.eabi_attribute 34, 1
  12              		.eabi_attribute 18, 4
  13              		.file	"gd32f4xx_usart.c"
  14              		.text
  15              	.Ltext0:
  16              		.cfi_sections	.debug_frame
  17              		.file 1 "Drivers/GD32F4xx_standard_peripheral/Source/gd32f4xx_usart.c"
  18              		.section	.text.usart_deinit,"ax",%progbits
  19              		.align	1
  20              		.global	usart_deinit
  21              		.syntax unified
  22              		.thumb
  23              		.thumb_func
  25              	usart_deinit:
  26              	.LVL0:
  27              	.LFB116:
   1:Drivers/GD32F4xx_standard_peripheral/Source/gd32f4xx_usart.c **** /*!
   2:Drivers/GD32F4xx_standard_peripheral/Source/gd32f4xx_usart.c ****     \file    gd32f4xx_usart.c
   3:Drivers/GD32F4xx_standard_peripheral/Source/gd32f4xx_usart.c ****     \brief   USART driver
   4:Drivers/GD32F4xx_standard_peripheral/Source/gd32f4xx_usart.c **** 
   5:Drivers/GD32F4xx_standard_peripheral/Source/gd32f4xx_usart.c ****     \version 2016-08-15, V1.0.0, firmware for GD32F4xx
   6:Drivers/GD32F4xx_standard_peripheral/Source/gd32f4xx_usart.c ****     \version 2018-12-12, V2.0.0, firmware for GD32F4xx
   7:Drivers/GD32F4xx_standard_peripheral/Source/gd32f4xx_usart.c ****     \version 2020-09-30, V2.1.0, firmware for GD32F4xx
   8:Drivers/GD32F4xx_standard_peripheral/Source/gd32f4xx_usart.c ****     \version 2022-03-09, V3.0.0, firmware for GD32F4xx
   9:Drivers/GD32F4xx_standard_peripheral/Source/gd32f4xx_usart.c **** */
  10:Drivers/GD32F4xx_standard_peripheral/Source/gd32f4xx_usart.c **** 
  11:Drivers/GD32F4xx_standard_peripheral/Source/gd32f4xx_usart.c **** /*
  12:Drivers/GD32F4xx_standard_peripheral/Source/gd32f4xx_usart.c ****     Copyright (c) 2022, GigaDevice Semiconductor Inc.
  13:Drivers/GD32F4xx_standard_peripheral/Source/gd32f4xx_usart.c **** 
  14:Drivers/GD32F4xx_standard_peripheral/Source/gd32f4xx_usart.c ****     Redistribution and use in source and binary forms, with or without modification,
  15:Drivers/GD32F4xx_standard_peripheral/Source/gd32f4xx_usart.c **** are permitted provided that the following conditions are met:
  16:Drivers/GD32F4xx_standard_peripheral/Source/gd32f4xx_usart.c **** 
  17:Drivers/GD32F4xx_standard_peripheral/Source/gd32f4xx_usart.c ****     1. Redistributions of source code must retain the above copyright notice, this
  18:Drivers/GD32F4xx_standard_peripheral/Source/gd32f4xx_usart.c ****        list of conditions and the following disclaimer.
  19:Drivers/GD32F4xx_standard_peripheral/Source/gd32f4xx_usart.c ****     2. Redistributions in binary form must reproduce the above copyright notice,
  20:Drivers/GD32F4xx_standard_peripheral/Source/gd32f4xx_usart.c ****        this list of conditions and the following disclaimer in the documentation
  21:Drivers/GD32F4xx_standard_peripheral/Source/gd32f4xx_usart.c ****        and/or other materials provided with the distribution.
  22:Drivers/GD32F4xx_standard_peripheral/Source/gd32f4xx_usart.c ****     3. Neither the name of the copyright holder nor the names of its contributors
  23:Drivers/GD32F4xx_standard_peripheral/Source/gd32f4xx_usart.c ****        may be used to endorse or promote products derived from this software without
  24:Drivers/GD32F4xx_standard_peripheral/Source/gd32f4xx_usart.c ****        specific prior written permission.
  25:Drivers/GD32F4xx_standard_peripheral/Source/gd32f4xx_usart.c **** 
  26:Drivers/GD32F4xx_standard_peripheral/Source/gd32f4xx_usart.c ****     THIS SOFTWARE IS PROVIDED BY THE COPYRIGHT HOLDERS AND CONTRIBUTORS "AS IS"
  27:Drivers/GD32F4xx_standard_peripheral/Source/gd32f4xx_usart.c **** AND ANY EXPRESS OR IMPLIED WARRANTIES, INCLUDING, BUT NOT LIMITED TO, THE IMPLIED
  28:Drivers/GD32F4xx_standard_peripheral/Source/gd32f4xx_usart.c **** WARRANTIES OF MERCHANTABILITY AND FITNESS FOR A PARTICULAR PURPOSE ARE DISCLAIMED.
  29:Drivers/GD32F4xx_standard_peripheral/Source/gd32f4xx_usart.c **** IN NO EVENT SHALL THE COPYRIGHT HOLDER OR CONTRIBUTORS BE LIABLE FOR ANY DIRECT,
  30:Drivers/GD32F4xx_standard_peripheral/Source/gd32f4xx_usart.c **** INDIRECT, INCIDENTAL, SPECIAL, EXEMPLARY, OR CONSEQUENTIAL DAMAGES (INCLUDING, BUT
  31:Drivers/GD32F4xx_standard_peripheral/Source/gd32f4xx_usart.c **** NOT LIMITED TO, PROCUREMENT OF SUBSTITUTE GOODS OR SERVICES; LOSS OF USE, DATA, OR
ARM GAS  /tmp/ccWYTPow.s 			page 2


  32:Drivers/GD32F4xx_standard_peripheral/Source/gd32f4xx_usart.c **** PROFITS; OR BUSINESS INTERRUPTION) HOWEVER CAUSED AND ON ANY THEORY OF LIABILITY,
  33:Drivers/GD32F4xx_standard_peripheral/Source/gd32f4xx_usart.c **** WHETHER IN CONTRACT, STRICT LIABILITY, OR TORT (INCLUDING NEGLIGENCE OR OTHERWISE)
  34:Drivers/GD32F4xx_standard_peripheral/Source/gd32f4xx_usart.c **** ARISING IN ANY WAY OUT OF THE USE OF THIS SOFTWARE, EVEN IF ADVISED OF THE POSSIBILITY
  35:Drivers/GD32F4xx_standard_peripheral/Source/gd32f4xx_usart.c **** OF SUCH DAMAGE.
  36:Drivers/GD32F4xx_standard_peripheral/Source/gd32f4xx_usart.c **** */
  37:Drivers/GD32F4xx_standard_peripheral/Source/gd32f4xx_usart.c **** 
  38:Drivers/GD32F4xx_standard_peripheral/Source/gd32f4xx_usart.c **** #include "gd32f4xx_usart.h"
  39:Drivers/GD32F4xx_standard_peripheral/Source/gd32f4xx_usart.c **** 
  40:Drivers/GD32F4xx_standard_peripheral/Source/gd32f4xx_usart.c **** /* USART register bit offset */
  41:Drivers/GD32F4xx_standard_peripheral/Source/gd32f4xx_usart.c **** #define GP_GUAT_OFFSET            ((uint32_t)8U)       /* bit offset of GUAT in USART_GP */
  42:Drivers/GD32F4xx_standard_peripheral/Source/gd32f4xx_usart.c **** #define CTL3_SCRTNUM_OFFSET       ((uint32_t)1U)       /* bit offset of SCRTNUM in USART_CTL3 */
  43:Drivers/GD32F4xx_standard_peripheral/Source/gd32f4xx_usart.c **** #define RT_BL_OFFSET              ((uint32_t)24U)      /* bit offset of BL in USART_RT */
  44:Drivers/GD32F4xx_standard_peripheral/Source/gd32f4xx_usart.c **** 
  45:Drivers/GD32F4xx_standard_peripheral/Source/gd32f4xx_usart.c **** /*!
  46:Drivers/GD32F4xx_standard_peripheral/Source/gd32f4xx_usart.c ****     \brief    reset USART/UART
  47:Drivers/GD32F4xx_standard_peripheral/Source/gd32f4xx_usart.c ****     \param[in]  usart_periph: USARTx(x=0,1,2,5)/UARTx(x=3,4,6,7)
  48:Drivers/GD32F4xx_standard_peripheral/Source/gd32f4xx_usart.c ****     \param[out] none
  49:Drivers/GD32F4xx_standard_peripheral/Source/gd32f4xx_usart.c ****     \retval     none
  50:Drivers/GD32F4xx_standard_peripheral/Source/gd32f4xx_usart.c **** */
  51:Drivers/GD32F4xx_standard_peripheral/Source/gd32f4xx_usart.c **** void usart_deinit(uint32_t usart_periph)
  52:Drivers/GD32F4xx_standard_peripheral/Source/gd32f4xx_usart.c **** {
  28              		.loc 1 52 1 view -0
  29              		.cfi_startproc
  30              		@ args = 0, pretend = 0, frame = 0
  31              		@ frame_needed = 0, uses_anonymous_args = 0
  53:Drivers/GD32F4xx_standard_peripheral/Source/gd32f4xx_usart.c ****     switch(usart_periph) {
  32              		.loc 1 53 5 view .LVU1
  52:Drivers/GD32F4xx_standard_peripheral/Source/gd32f4xx_usart.c ****     switch(usart_periph) {
  33              		.loc 1 52 1 is_stmt 0 view .LVU2
  34 0000 08B5     		push	{r3, lr}
  35              	.LCFI0:
  36              		.cfi_def_cfa_offset 8
  37              		.cfi_offset 3, -8
  38              		.cfi_offset 14, -4
  39              		.loc 1 53 5 view .LVU3
  40 0002 2D4B     		ldr	r3, .L14
  41 0004 9842     		cmp	r0, r3
  42 0006 50D0     		beq	.L2
  43 0008 17D8     		bhi	.L3
  44 000a A3F53053 		sub	r3, r3, #11264
  45 000e 9842     		cmp	r0, r3
  46 0010 44D0     		beq	.L4
  47 0012 08D8     		bhi	.L5
  48 0014 A3F50063 		sub	r3, r3, #2048
  49 0018 9842     		cmp	r0, r3
  50 001a 2AD0     		beq	.L6
  51 001c 03F58063 		add	r3, r3, #1024
  52 0020 9842     		cmp	r0, r3
  53 0022 2DD0     		beq	.L7
  54              	.L1:
  54:Drivers/GD32F4xx_standard_peripheral/Source/gd32f4xx_usart.c ****     case USART0:
  55:Drivers/GD32F4xx_standard_peripheral/Source/gd32f4xx_usart.c ****         rcu_periph_reset_enable(RCU_USART0RST);
  56:Drivers/GD32F4xx_standard_peripheral/Source/gd32f4xx_usart.c ****         rcu_periph_reset_disable(RCU_USART0RST);
  57:Drivers/GD32F4xx_standard_peripheral/Source/gd32f4xx_usart.c ****         break;
  58:Drivers/GD32F4xx_standard_peripheral/Source/gd32f4xx_usart.c ****     case USART1:
  59:Drivers/GD32F4xx_standard_peripheral/Source/gd32f4xx_usart.c ****         rcu_periph_reset_enable(RCU_USART1RST);
  60:Drivers/GD32F4xx_standard_peripheral/Source/gd32f4xx_usart.c ****         rcu_periph_reset_disable(RCU_USART1RST);
ARM GAS  /tmp/ccWYTPow.s 			page 3


  61:Drivers/GD32F4xx_standard_peripheral/Source/gd32f4xx_usart.c ****         break;
  62:Drivers/GD32F4xx_standard_peripheral/Source/gd32f4xx_usart.c ****     case USART2:
  63:Drivers/GD32F4xx_standard_peripheral/Source/gd32f4xx_usart.c ****         rcu_periph_reset_enable(RCU_USART2RST);
  64:Drivers/GD32F4xx_standard_peripheral/Source/gd32f4xx_usart.c ****         rcu_periph_reset_disable(RCU_USART2RST);
  65:Drivers/GD32F4xx_standard_peripheral/Source/gd32f4xx_usart.c ****         break;
  66:Drivers/GD32F4xx_standard_peripheral/Source/gd32f4xx_usart.c ****     case USART5:
  67:Drivers/GD32F4xx_standard_peripheral/Source/gd32f4xx_usart.c ****         rcu_periph_reset_enable(RCU_USART5RST);
  68:Drivers/GD32F4xx_standard_peripheral/Source/gd32f4xx_usart.c ****         rcu_periph_reset_disable(RCU_USART5RST);
  69:Drivers/GD32F4xx_standard_peripheral/Source/gd32f4xx_usart.c ****         break;
  70:Drivers/GD32F4xx_standard_peripheral/Source/gd32f4xx_usart.c ****     case UART3:
  71:Drivers/GD32F4xx_standard_peripheral/Source/gd32f4xx_usart.c ****         rcu_periph_reset_enable(RCU_UART3RST);
  72:Drivers/GD32F4xx_standard_peripheral/Source/gd32f4xx_usart.c ****         rcu_periph_reset_disable(RCU_UART3RST);
  73:Drivers/GD32F4xx_standard_peripheral/Source/gd32f4xx_usart.c ****         break;
  74:Drivers/GD32F4xx_standard_peripheral/Source/gd32f4xx_usart.c ****     case UART4:
  75:Drivers/GD32F4xx_standard_peripheral/Source/gd32f4xx_usart.c ****         rcu_periph_reset_enable(RCU_UART4RST);
  76:Drivers/GD32F4xx_standard_peripheral/Source/gd32f4xx_usart.c ****         rcu_periph_reset_disable(RCU_UART4RST);
  77:Drivers/GD32F4xx_standard_peripheral/Source/gd32f4xx_usart.c ****         break;
  78:Drivers/GD32F4xx_standard_peripheral/Source/gd32f4xx_usart.c ****     case UART6:
  79:Drivers/GD32F4xx_standard_peripheral/Source/gd32f4xx_usart.c ****         rcu_periph_reset_enable(RCU_UART6RST);
  80:Drivers/GD32F4xx_standard_peripheral/Source/gd32f4xx_usart.c ****         rcu_periph_reset_disable(RCU_UART6RST);
  81:Drivers/GD32F4xx_standard_peripheral/Source/gd32f4xx_usart.c ****         break;
  82:Drivers/GD32F4xx_standard_peripheral/Source/gd32f4xx_usart.c ****     case UART7:
  83:Drivers/GD32F4xx_standard_peripheral/Source/gd32f4xx_usart.c ****         rcu_periph_reset_enable(RCU_UART7RST);
  84:Drivers/GD32F4xx_standard_peripheral/Source/gd32f4xx_usart.c ****         rcu_periph_reset_disable(RCU_UART7RST);
  85:Drivers/GD32F4xx_standard_peripheral/Source/gd32f4xx_usart.c ****         break;
  86:Drivers/GD32F4xx_standard_peripheral/Source/gd32f4xx_usart.c ****     default:
  87:Drivers/GD32F4xx_standard_peripheral/Source/gd32f4xx_usart.c ****         break;
  88:Drivers/GD32F4xx_standard_peripheral/Source/gd32f4xx_usart.c ****     }
  89:Drivers/GD32F4xx_standard_peripheral/Source/gd32f4xx_usart.c **** }
  55              		.loc 1 89 1 view .LVU4
  56 0024 08BD     		pop	{r3, pc}
  57              	.L5:
  53:Drivers/GD32F4xx_standard_peripheral/Source/gd32f4xx_usart.c ****     case USART0:
  58              		.loc 1 53 5 view .LVU5
  59 0026 254B     		ldr	r3, .L14+4
  60 0028 9842     		cmp	r0, r3
  61 002a FBD1     		bne	.L1
  75:Drivers/GD32F4xx_standard_peripheral/Source/gd32f4xx_usart.c ****         rcu_periph_reset_disable(RCU_UART4RST);
  62              		.loc 1 75 9 is_stmt 1 view .LVU6
  63 002c 40F61400 		movw	r0, #2068
  64              	.LVL1:
  75:Drivers/GD32F4xx_standard_peripheral/Source/gd32f4xx_usart.c ****         rcu_periph_reset_disable(RCU_UART4RST);
  65              		.loc 1 75 9 is_stmt 0 view .LVU7
  66 0030 FFF7FEFF 		bl	rcu_periph_reset_enable
  67              	.LVL2:
  76:Drivers/GD32F4xx_standard_peripheral/Source/gd32f4xx_usart.c ****         break;
  68              		.loc 1 76 9 is_stmt 1 view .LVU8
  69 0034 40F61400 		movw	r0, #2068
  70 0038 17E0     		b	.L13
  71              	.LVL3:
  72              	.L3:
  53:Drivers/GD32F4xx_standard_peripheral/Source/gd32f4xx_usart.c ****     case USART0:
  73              		.loc 1 53 5 is_stmt 0 view .LVU9
  74 003a 214B     		ldr	r3, .L14+8
  75 003c 9842     		cmp	r0, r3
  76 003e 0ED0     		beq	.L10
  77 0040 03F58063 		add	r3, r3, #1024
ARM GAS  /tmp/ccWYTPow.s 			page 4


  78 0044 9842     		cmp	r0, r3
  79 0046 22D0     		beq	.L11
  80 0048 A3F51843 		sub	r3, r3, #38912
  81 004c 9842     		cmp	r0, r3
  82 004e E9D1     		bne	.L1
  83:Drivers/GD32F4xx_standard_peripheral/Source/gd32f4xx_usart.c ****         rcu_periph_reset_disable(RCU_UART7RST);
  83              		.loc 1 83 9 is_stmt 1 view .LVU10
  84 0050 40F61F00 		movw	r0, #2079
  85              	.LVL4:
  83:Drivers/GD32F4xx_standard_peripheral/Source/gd32f4xx_usart.c ****         rcu_periph_reset_disable(RCU_UART7RST);
  86              		.loc 1 83 9 is_stmt 0 view .LVU11
  87 0054 FFF7FEFF 		bl	rcu_periph_reset_enable
  88              	.LVL5:
  84:Drivers/GD32F4xx_standard_peripheral/Source/gd32f4xx_usart.c ****         break;
  89              		.loc 1 84 9 is_stmt 1 view .LVU12
  90 0058 40F61F00 		movw	r0, #2079
  91 005c 05E0     		b	.L13
  92              	.LVL6:
  93              	.L10:
  55:Drivers/GD32F4xx_standard_peripheral/Source/gd32f4xx_usart.c ****         rcu_periph_reset_disable(RCU_USART0RST);
  94              		.loc 1 55 9 view .LVU13
  95 005e 40F60410 		movw	r0, #2308
  96              	.LVL7:
  55:Drivers/GD32F4xx_standard_peripheral/Source/gd32f4xx_usart.c ****         rcu_periph_reset_disable(RCU_USART0RST);
  97              		.loc 1 55 9 is_stmt 0 view .LVU14
  98 0062 FFF7FEFF 		bl	rcu_periph_reset_enable
  99              	.LVL8:
  56:Drivers/GD32F4xx_standard_peripheral/Source/gd32f4xx_usart.c ****         break;
 100              		.loc 1 56 9 is_stmt 1 view .LVU15
 101 0066 40F60410 		movw	r0, #2308
 102              	.L13:
 103              		.loc 1 89 1 is_stmt 0 view .LVU16
 104 006a BDE80840 		pop	{r3, lr}
 105              	.LCFI1:
 106              		.cfi_remember_state
 107              		.cfi_restore 14
 108              		.cfi_restore 3
 109              		.cfi_def_cfa_offset 0
  84:Drivers/GD32F4xx_standard_peripheral/Source/gd32f4xx_usart.c ****         break;
 110              		.loc 1 84 9 view .LVU17
 111 006e FFF7FEBF 		b	rcu_periph_reset_disable
 112              	.LVL9:
 113              	.L6:
 114              	.LCFI2:
 115              		.cfi_restore_state
  59:Drivers/GD32F4xx_standard_peripheral/Source/gd32f4xx_usart.c ****         rcu_periph_reset_disable(RCU_USART1RST);
 116              		.loc 1 59 9 is_stmt 1 view .LVU18
 117 0072 40F61100 		movw	r0, #2065
 118              	.LVL10:
  59:Drivers/GD32F4xx_standard_peripheral/Source/gd32f4xx_usart.c ****         rcu_periph_reset_disable(RCU_USART1RST);
 119              		.loc 1 59 9 is_stmt 0 view .LVU19
 120 0076 FFF7FEFF 		bl	rcu_periph_reset_enable
 121              	.LVL11:
  60:Drivers/GD32F4xx_standard_peripheral/Source/gd32f4xx_usart.c ****         break;
 122              		.loc 1 60 9 is_stmt 1 view .LVU20
 123 007a 40F61100 		movw	r0, #2065
 124 007e F4E7     		b	.L13
ARM GAS  /tmp/ccWYTPow.s 			page 5


 125              	.LVL12:
 126              	.L7:
  63:Drivers/GD32F4xx_standard_peripheral/Source/gd32f4xx_usart.c ****         rcu_periph_reset_disable(RCU_USART2RST);
 127              		.loc 1 63 9 view .LVU21
 128 0080 40F61200 		movw	r0, #2066
 129              	.LVL13:
  63:Drivers/GD32F4xx_standard_peripheral/Source/gd32f4xx_usart.c ****         rcu_periph_reset_disable(RCU_USART2RST);
 130              		.loc 1 63 9 is_stmt 0 view .LVU22
 131 0084 FFF7FEFF 		bl	rcu_periph_reset_enable
 132              	.LVL14:
  64:Drivers/GD32F4xx_standard_peripheral/Source/gd32f4xx_usart.c ****         break;
 133              		.loc 1 64 9 is_stmt 1 view .LVU23
 134 0088 40F61200 		movw	r0, #2066
 135 008c EDE7     		b	.L13
 136              	.LVL15:
 137              	.L11:
  67:Drivers/GD32F4xx_standard_peripheral/Source/gd32f4xx_usart.c ****         rcu_periph_reset_disable(RCU_USART5RST);
 138              		.loc 1 67 9 view .LVU24
 139 008e 40F60510 		movw	r0, #2309
 140              	.LVL16:
  67:Drivers/GD32F4xx_standard_peripheral/Source/gd32f4xx_usart.c ****         rcu_periph_reset_disable(RCU_USART5RST);
 141              		.loc 1 67 9 is_stmt 0 view .LVU25
 142 0092 FFF7FEFF 		bl	rcu_periph_reset_enable
 143              	.LVL17:
  68:Drivers/GD32F4xx_standard_peripheral/Source/gd32f4xx_usart.c ****         break;
 144              		.loc 1 68 9 is_stmt 1 view .LVU26
 145 0096 40F60510 		movw	r0, #2309
 146 009a E6E7     		b	.L13
 147              	.LVL18:
 148              	.L4:
  71:Drivers/GD32F4xx_standard_peripheral/Source/gd32f4xx_usart.c ****         rcu_periph_reset_disable(RCU_UART3RST);
 149              		.loc 1 71 9 view .LVU27
 150 009c 40F61300 		movw	r0, #2067
 151              	.LVL19:
  71:Drivers/GD32F4xx_standard_peripheral/Source/gd32f4xx_usart.c ****         rcu_periph_reset_disable(RCU_UART3RST);
 152              		.loc 1 71 9 is_stmt 0 view .LVU28
 153 00a0 FFF7FEFF 		bl	rcu_periph_reset_enable
 154              	.LVL20:
  72:Drivers/GD32F4xx_standard_peripheral/Source/gd32f4xx_usart.c ****         break;
 155              		.loc 1 72 9 is_stmt 1 view .LVU29
 156 00a4 40F61300 		movw	r0, #2067
 157 00a8 DFE7     		b	.L13
 158              	.LVL21:
 159              	.L2:
  79:Drivers/GD32F4xx_standard_peripheral/Source/gd32f4xx_usart.c ****         rcu_periph_reset_disable(RCU_UART6RST);
 160              		.loc 1 79 9 view .LVU30
 161 00aa 40F61E00 		movw	r0, #2078
 162              	.LVL22:
  79:Drivers/GD32F4xx_standard_peripheral/Source/gd32f4xx_usart.c ****         rcu_periph_reset_disable(RCU_UART6RST);
 163              		.loc 1 79 9 is_stmt 0 view .LVU31
 164 00ae FFF7FEFF 		bl	rcu_periph_reset_enable
 165              	.LVL23:
  80:Drivers/GD32F4xx_standard_peripheral/Source/gd32f4xx_usart.c ****         break;
 166              		.loc 1 80 9 is_stmt 1 view .LVU32
 167 00b2 40F61E00 		movw	r0, #2078
 168 00b6 D8E7     		b	.L13
 169              	.L15:
ARM GAS  /tmp/ccWYTPow.s 			page 6


 170              		.align	2
 171              	.L14:
 172 00b8 00780040 		.word	1073772544
 173 00bc 00500040 		.word	1073762304
 174 00c0 00100140 		.word	1073811456
 175              		.cfi_endproc
 176              	.LFE116:
 178              		.section	.text.usart_baudrate_set,"ax",%progbits
 179              		.align	1
 180              		.global	usart_baudrate_set
 181              		.syntax unified
 182              		.thumb
 183              		.thumb_func
 185              	usart_baudrate_set:
 186              	.LVL24:
 187              	.LFB117:
  90:Drivers/GD32F4xx_standard_peripheral/Source/gd32f4xx_usart.c **** 
  91:Drivers/GD32F4xx_standard_peripheral/Source/gd32f4xx_usart.c **** /*!
  92:Drivers/GD32F4xx_standard_peripheral/Source/gd32f4xx_usart.c ****     \brief    configure USART baud rate value
  93:Drivers/GD32F4xx_standard_peripheral/Source/gd32f4xx_usart.c ****     \param[in]  usart_periph: USARTx(x=0,1,2,5)/UARTx(x=3,4,6,7)
  94:Drivers/GD32F4xx_standard_peripheral/Source/gd32f4xx_usart.c ****     \param[in]  baudval: baud rate value
  95:Drivers/GD32F4xx_standard_peripheral/Source/gd32f4xx_usart.c ****     \param[out] none
  96:Drivers/GD32F4xx_standard_peripheral/Source/gd32f4xx_usart.c ****     \retval     none
  97:Drivers/GD32F4xx_standard_peripheral/Source/gd32f4xx_usart.c **** */
  98:Drivers/GD32F4xx_standard_peripheral/Source/gd32f4xx_usart.c **** void usart_baudrate_set(uint32_t usart_periph, uint32_t baudval)
  99:Drivers/GD32F4xx_standard_peripheral/Source/gd32f4xx_usart.c **** {
 188              		.loc 1 99 1 view -0
 189              		.cfi_startproc
 190              		@ args = 0, pretend = 0, frame = 0
 191              		@ frame_needed = 0, uses_anonymous_args = 0
 100:Drivers/GD32F4xx_standard_peripheral/Source/gd32f4xx_usart.c ****     uint32_t uclk = 0U, intdiv = 0U, fradiv = 0U, udiv = 0U;
 192              		.loc 1 100 5 view .LVU34
 101:Drivers/GD32F4xx_standard_peripheral/Source/gd32f4xx_usart.c ****     switch(usart_periph) {
 193              		.loc 1 101 5 view .LVU35
  99:Drivers/GD32F4xx_standard_peripheral/Source/gd32f4xx_usart.c ****     uint32_t uclk = 0U, intdiv = 0U, fradiv = 0U, udiv = 0U;
 194              		.loc 1 99 1 is_stmt 0 view .LVU36
 195 0000 38B5     		push	{r3, r4, r5, lr}
 196              	.LCFI3:
 197              		.cfi_def_cfa_offset 16
 198              		.cfi_offset 3, -16
 199              		.cfi_offset 4, -12
 200              		.cfi_offset 5, -8
 201              		.cfi_offset 14, -4
 202              		.loc 1 101 5 view .LVU37
 203 0002 1E4B     		ldr	r3, .L29
 204 0004 9842     		cmp	r0, r3
  99:Drivers/GD32F4xx_standard_peripheral/Source/gd32f4xx_usart.c ****     uint32_t uclk = 0U, intdiv = 0U, fradiv = 0U, udiv = 0U;
 205              		.loc 1 99 1 view .LVU38
 206 0006 0446     		mov	r4, r0
 207 0008 0D46     		mov	r5, r1
 208              		.loc 1 101 5 view .LVU39
 209 000a 2ED0     		beq	.L17
 210 000c 21D8     		bhi	.L18
 211 000e A3F53053 		sub	r3, r3, #11264
 212 0012 9842     		cmp	r0, r3
 213 0014 29D0     		beq	.L17
 214 0016 1AD8     		bhi	.L19
ARM GAS  /tmp/ccWYTPow.s 			page 7


 215 0018 A3F50063 		sub	r3, r3, #2048
 216 001c 9842     		cmp	r0, r3
 217 001e 24D0     		beq	.L17
 218 0020 03F58063 		add	r3, r3, #1024
 219              	.L27:
 220 0024 9C42     		cmp	r4, r3
 221 0026 20D0     		beq	.L17
 222 0028 0020     		movs	r0, #0
 223              	.LVL25:
 224              	.L20:
 102:Drivers/GD32F4xx_standard_peripheral/Source/gd32f4xx_usart.c ****     /* get clock frequency */
 103:Drivers/GD32F4xx_standard_peripheral/Source/gd32f4xx_usart.c ****     case USART0:
 104:Drivers/GD32F4xx_standard_peripheral/Source/gd32f4xx_usart.c ****         uclk = rcu_clock_freq_get(CK_APB2);
 105:Drivers/GD32F4xx_standard_peripheral/Source/gd32f4xx_usart.c ****         break;
 106:Drivers/GD32F4xx_standard_peripheral/Source/gd32f4xx_usart.c ****     case USART5:
 107:Drivers/GD32F4xx_standard_peripheral/Source/gd32f4xx_usart.c ****         uclk = rcu_clock_freq_get(CK_APB2);
 108:Drivers/GD32F4xx_standard_peripheral/Source/gd32f4xx_usart.c ****         break;
 109:Drivers/GD32F4xx_standard_peripheral/Source/gd32f4xx_usart.c ****     case USART1:
 110:Drivers/GD32F4xx_standard_peripheral/Source/gd32f4xx_usart.c ****         uclk = rcu_clock_freq_get(CK_APB1);
 111:Drivers/GD32F4xx_standard_peripheral/Source/gd32f4xx_usart.c ****         break;
 112:Drivers/GD32F4xx_standard_peripheral/Source/gd32f4xx_usart.c ****     case USART2:
 113:Drivers/GD32F4xx_standard_peripheral/Source/gd32f4xx_usart.c ****         uclk = rcu_clock_freq_get(CK_APB1);
 114:Drivers/GD32F4xx_standard_peripheral/Source/gd32f4xx_usart.c ****         break;
 115:Drivers/GD32F4xx_standard_peripheral/Source/gd32f4xx_usart.c ****     case UART3:
 116:Drivers/GD32F4xx_standard_peripheral/Source/gd32f4xx_usart.c ****         uclk = rcu_clock_freq_get(CK_APB1);
 117:Drivers/GD32F4xx_standard_peripheral/Source/gd32f4xx_usart.c ****         break;
 118:Drivers/GD32F4xx_standard_peripheral/Source/gd32f4xx_usart.c ****     case UART4:
 119:Drivers/GD32F4xx_standard_peripheral/Source/gd32f4xx_usart.c ****         uclk = rcu_clock_freq_get(CK_APB1);
 120:Drivers/GD32F4xx_standard_peripheral/Source/gd32f4xx_usart.c ****         break;
 121:Drivers/GD32F4xx_standard_peripheral/Source/gd32f4xx_usart.c ****     case UART6:
 122:Drivers/GD32F4xx_standard_peripheral/Source/gd32f4xx_usart.c ****         uclk = rcu_clock_freq_get(CK_APB1);
 123:Drivers/GD32F4xx_standard_peripheral/Source/gd32f4xx_usart.c ****         break;
 124:Drivers/GD32F4xx_standard_peripheral/Source/gd32f4xx_usart.c ****     case UART7:
 125:Drivers/GD32F4xx_standard_peripheral/Source/gd32f4xx_usart.c ****         uclk = rcu_clock_freq_get(CK_APB1);
 126:Drivers/GD32F4xx_standard_peripheral/Source/gd32f4xx_usart.c ****         break;
 127:Drivers/GD32F4xx_standard_peripheral/Source/gd32f4xx_usart.c ****     default:
 128:Drivers/GD32F4xx_standard_peripheral/Source/gd32f4xx_usart.c ****         break;
 129:Drivers/GD32F4xx_standard_peripheral/Source/gd32f4xx_usart.c ****     }
 130:Drivers/GD32F4xx_standard_peripheral/Source/gd32f4xx_usart.c ****     if(USART_CTL0(usart_periph) & USART_CTL0_OVSMOD) {
 225              		.loc 1 130 5 is_stmt 1 view .LVU40
 226              		.loc 1 130 8 is_stmt 0 view .LVU41
 227 002a E268     		ldr	r2, [r4, #12]
 228              		.loc 1 130 7 view .LVU42
 229 002c 1204     		lsls	r2, r2, #16
 131:Drivers/GD32F4xx_standard_peripheral/Source/gd32f4xx_usart.c ****         /* when oversampling by 8, configure the value of USART_BAUD */
 132:Drivers/GD32F4xx_standard_peripheral/Source/gd32f4xx_usart.c ****         udiv = ((2U * uclk) + baudval / 2U) / baudval;
 230              		.loc 1 132 39 view .LVU43
 231 002e 4FEA5503 		lsr	r3, r5, #1
 130:Drivers/GD32F4xx_standard_peripheral/Source/gd32f4xx_usart.c ****         /* when oversampling by 8, configure the value of USART_BAUD */
 232              		.loc 1 130 7 view .LVU44
 233 0032 1CD5     		bpl	.L22
 234              		.loc 1 132 9 is_stmt 1 view .LVU45
 235              		.loc 1 132 29 is_stmt 0 view .LVU46
 236 0034 03EB4003 		add	r3, r3, r0, lsl #1
 237              		.loc 1 132 14 view .LVU47
 238 0038 B3FBF5F1 		udiv	r1, r3, r5
 239              	.LVL26:
ARM GAS  /tmp/ccWYTPow.s 			page 8


 133:Drivers/GD32F4xx_standard_peripheral/Source/gd32f4xx_usart.c ****         intdiv = udiv & 0xfff0U;
 240              		.loc 1 133 9 is_stmt 1 view .LVU48
 134:Drivers/GD32F4xx_standard_peripheral/Source/gd32f4xx_usart.c ****         fradiv = (udiv >> 1U) & 0x7U;
 241              		.loc 1 134 9 view .LVU49
 135:Drivers/GD32F4xx_standard_peripheral/Source/gd32f4xx_usart.c ****         USART_BAUD(usart_periph) = ((USART_BAUD_FRADIV | USART_BAUD_INTDIV) & (intdiv | fradiv));
 242              		.loc 1 135 9 view .LVU50
 134:Drivers/GD32F4xx_standard_peripheral/Source/gd32f4xx_usart.c ****         fradiv = (udiv >> 1U) & 0x7U;
 243              		.loc 1 134 16 is_stmt 0 view .LVU51
 244 003c C1F34203 		ubfx	r3, r1, #1, #3
 133:Drivers/GD32F4xx_standard_peripheral/Source/gd32f4xx_usart.c ****         intdiv = udiv & 0xfff0U;
 245              		.loc 1 133 16 view .LVU52
 246 0040 21F00F01 		bic	r1, r1, #15
 247              	.LVL27:
 133:Drivers/GD32F4xx_standard_peripheral/Source/gd32f4xx_usart.c ****         intdiv = udiv & 0xfff0U;
 248              		.loc 1 133 16 view .LVU53
 249 0044 0904     		lsls	r1, r1, #16
 250 0046 090C     		lsrs	r1, r1, #16
 251              		.loc 1 135 87 view .LVU54
 252 0048 0B43     		orrs	r3, r3, r1
 253              		.loc 1 135 34 view .LVU55
 254 004a A360     		str	r3, [r4, #8]
 255              	.LVL28:
 256              	.L16:
 136:Drivers/GD32F4xx_standard_peripheral/Source/gd32f4xx_usart.c ****     } else {
 137:Drivers/GD32F4xx_standard_peripheral/Source/gd32f4xx_usart.c ****         /* when oversampling by 16, configure the value of USART_BAUD */
 138:Drivers/GD32F4xx_standard_peripheral/Source/gd32f4xx_usart.c ****         udiv = (uclk + baudval / 2U) / baudval;
 139:Drivers/GD32F4xx_standard_peripheral/Source/gd32f4xx_usart.c ****         intdiv = udiv & 0xfff0U;
 140:Drivers/GD32F4xx_standard_peripheral/Source/gd32f4xx_usart.c ****         fradiv = udiv & 0xfU;
 141:Drivers/GD32F4xx_standard_peripheral/Source/gd32f4xx_usart.c ****         USART_BAUD(usart_periph) = ((USART_BAUD_FRADIV | USART_BAUD_INTDIV) & (intdiv | fradiv));
 142:Drivers/GD32F4xx_standard_peripheral/Source/gd32f4xx_usart.c ****     }
 143:Drivers/GD32F4xx_standard_peripheral/Source/gd32f4xx_usart.c **** }
 257              		.loc 1 143 1 view .LVU56
 258 004c 38BD     		pop	{r3, r4, r5, pc}
 259              	.LVL29:
 260              	.L19:
 101:Drivers/GD32F4xx_standard_peripheral/Source/gd32f4xx_usart.c ****     /* get clock frequency */
 261              		.loc 1 101 5 view .LVU57
 262 004e 0C4B     		ldr	r3, .L29+4
 263 0050 E8E7     		b	.L27
 264              	.L18:
 265 0052 0C4B     		ldr	r3, .L29+8
 266 0054 20F48062 		bic	r2, r0, #1024
 267 0058 9A42     		cmp	r2, r3
 268 005a 02D0     		beq	.L21
 269 005c A3F51443 		sub	r3, r3, #37888
 270 0060 E0E7     		b	.L27
 271              	.L21:
 104:Drivers/GD32F4xx_standard_peripheral/Source/gd32f4xx_usart.c ****         break;
 272              		.loc 1 104 9 is_stmt 1 view .LVU58
 104:Drivers/GD32F4xx_standard_peripheral/Source/gd32f4xx_usart.c ****         break;
 273              		.loc 1 104 16 is_stmt 0 view .LVU59
 274 0062 0320     		movs	r0, #3
 275              	.LVL30:
 276              	.L25:
 110:Drivers/GD32F4xx_standard_peripheral/Source/gd32f4xx_usart.c ****         break;
 277              		.loc 1 110 16 view .LVU60
 278 0064 FFF7FEFF 		bl	rcu_clock_freq_get
ARM GAS  /tmp/ccWYTPow.s 			page 9


 279              	.LVL31:
 111:Drivers/GD32F4xx_standard_peripheral/Source/gd32f4xx_usart.c ****     case USART2:
 280              		.loc 1 111 9 is_stmt 1 view .LVU61
 281 0068 DFE7     		b	.L20
 282              	.LVL32:
 283              	.L17:
 110:Drivers/GD32F4xx_standard_peripheral/Source/gd32f4xx_usart.c ****         break;
 284              		.loc 1 110 9 view .LVU62
 110:Drivers/GD32F4xx_standard_peripheral/Source/gd32f4xx_usart.c ****         break;
 285              		.loc 1 110 16 is_stmt 0 view .LVU63
 286 006a 0220     		movs	r0, #2
 287              	.LVL33:
 110:Drivers/GD32F4xx_standard_peripheral/Source/gd32f4xx_usart.c ****         break;
 288              		.loc 1 110 16 view .LVU64
 289 006c FAE7     		b	.L25
 290              	.LVL34:
 291              	.L22:
 138:Drivers/GD32F4xx_standard_peripheral/Source/gd32f4xx_usart.c ****         intdiv = udiv & 0xfff0U;
 292              		.loc 1 138 9 is_stmt 1 view .LVU65
 139:Drivers/GD32F4xx_standard_peripheral/Source/gd32f4xx_usart.c ****         fradiv = udiv & 0xfU;
 293              		.loc 1 139 9 view .LVU66
 140:Drivers/GD32F4xx_standard_peripheral/Source/gd32f4xx_usart.c ****         USART_BAUD(usart_periph) = ((USART_BAUD_FRADIV | USART_BAUD_INTDIV) & (intdiv | fradiv));
 294              		.loc 1 140 9 view .LVU67
 141:Drivers/GD32F4xx_standard_peripheral/Source/gd32f4xx_usart.c ****     }
 295              		.loc 1 141 9 view .LVU68
 138:Drivers/GD32F4xx_standard_peripheral/Source/gd32f4xx_usart.c ****         intdiv = udiv & 0xfff0U;
 296              		.loc 1 138 22 is_stmt 0 view .LVU69
 297 006e C118     		adds	r1, r0, r3
 138:Drivers/GD32F4xx_standard_peripheral/Source/gd32f4xx_usart.c ****         intdiv = udiv & 0xfff0U;
 298              		.loc 1 138 14 view .LVU70
 299 0070 B1FBF5F1 		udiv	r1, r1, r5
 300              	.LVL35:
 141:Drivers/GD32F4xx_standard_peripheral/Source/gd32f4xx_usart.c ****     }
 301              		.loc 1 141 87 view .LVU71
 302 0074 89B2     		uxth	r1, r1
 303              	.LVL36:
 141:Drivers/GD32F4xx_standard_peripheral/Source/gd32f4xx_usart.c ****     }
 304              		.loc 1 141 34 view .LVU72
 305 0076 A160     		str	r1, [r4, #8]
 306              		.loc 1 143 1 view .LVU73
 307 0078 E8E7     		b	.L16
 308              	.L30:
 309 007a 00BF     		.align	2
 310              	.L29:
 311 007c 00780040 		.word	1073772544
 312 0080 00500040 		.word	1073762304
 313 0084 00100140 		.word	1073811456
 314              		.cfi_endproc
 315              	.LFE117:
 317              		.section	.text.usart_parity_config,"ax",%progbits
 318              		.align	1
 319              		.global	usart_parity_config
 320              		.syntax unified
 321              		.thumb
 322              		.thumb_func
 324              	usart_parity_config:
 325              	.LVL37:
ARM GAS  /tmp/ccWYTPow.s 			page 10


 326              	.LFB118:
 144:Drivers/GD32F4xx_standard_peripheral/Source/gd32f4xx_usart.c **** 
 145:Drivers/GD32F4xx_standard_peripheral/Source/gd32f4xx_usart.c **** /*!
 146:Drivers/GD32F4xx_standard_peripheral/Source/gd32f4xx_usart.c ****     \brief   configure USART parity function
 147:Drivers/GD32F4xx_standard_peripheral/Source/gd32f4xx_usart.c ****     \param[in] usart_periph: USARTx(x=0,1,2,5)/UARTx(x=3,4,6,7)
 148:Drivers/GD32F4xx_standard_peripheral/Source/gd32f4xx_usart.c ****     \param[in] paritycfg: configure USART parity
 149:Drivers/GD32F4xx_standard_peripheral/Source/gd32f4xx_usart.c ****                only one parameter can be selected which is shown as below:
 150:Drivers/GD32F4xx_standard_peripheral/Source/gd32f4xx_usart.c ****       \arg       USART_PM_NONE: no parity
 151:Drivers/GD32F4xx_standard_peripheral/Source/gd32f4xx_usart.c ****       \arg       USART_PM_EVEN: even parity
 152:Drivers/GD32F4xx_standard_peripheral/Source/gd32f4xx_usart.c ****       \arg       USART_PM_ODD:  odd parity
 153:Drivers/GD32F4xx_standard_peripheral/Source/gd32f4xx_usart.c ****     \param[out] none
 154:Drivers/GD32F4xx_standard_peripheral/Source/gd32f4xx_usart.c ****     \retval     none
 155:Drivers/GD32F4xx_standard_peripheral/Source/gd32f4xx_usart.c **** */
 156:Drivers/GD32F4xx_standard_peripheral/Source/gd32f4xx_usart.c **** void usart_parity_config(uint32_t usart_periph, uint32_t paritycfg)
 157:Drivers/GD32F4xx_standard_peripheral/Source/gd32f4xx_usart.c **** {
 327              		.loc 1 157 1 is_stmt 1 view -0
 328              		.cfi_startproc
 329              		@ args = 0, pretend = 0, frame = 0
 330              		@ frame_needed = 0, uses_anonymous_args = 0
 331              		@ link register save eliminated.
 158:Drivers/GD32F4xx_standard_peripheral/Source/gd32f4xx_usart.c ****     /* clear USART_CTL0 PM,PCEN Bits */
 159:Drivers/GD32F4xx_standard_peripheral/Source/gd32f4xx_usart.c ****     USART_CTL0(usart_periph) &= ~(USART_CTL0_PM | USART_CTL0_PCEN);
 332              		.loc 1 159 5 view .LVU75
 333 0000 C368     		ldr	r3, [r0, #12]
 334              		.loc 1 159 30 is_stmt 0 view .LVU76
 335 0002 23F4C063 		bic	r3, r3, #1536
 336 0006 C360     		str	r3, [r0, #12]
 160:Drivers/GD32F4xx_standard_peripheral/Source/gd32f4xx_usart.c ****     /* configure USART parity mode */
 161:Drivers/GD32F4xx_standard_peripheral/Source/gd32f4xx_usart.c ****     USART_CTL0(usart_periph) |= paritycfg ;
 337              		.loc 1 161 5 is_stmt 1 view .LVU77
 338 0008 C368     		ldr	r3, [r0, #12]
 339              		.loc 1 161 30 is_stmt 0 view .LVU78
 340 000a 0B43     		orrs	r3, r3, r1
 341 000c C360     		str	r3, [r0, #12]
 162:Drivers/GD32F4xx_standard_peripheral/Source/gd32f4xx_usart.c **** }
 342              		.loc 1 162 1 view .LVU79
 343 000e 7047     		bx	lr
 344              		.cfi_endproc
 345              	.LFE118:
 347              		.section	.text.usart_word_length_set,"ax",%progbits
 348              		.align	1
 349              		.global	usart_word_length_set
 350              		.syntax unified
 351              		.thumb
 352              		.thumb_func
 354              	usart_word_length_set:
 355              	.LVL38:
 356              	.LFB119:
 163:Drivers/GD32F4xx_standard_peripheral/Source/gd32f4xx_usart.c **** 
 164:Drivers/GD32F4xx_standard_peripheral/Source/gd32f4xx_usart.c **** /*!
 165:Drivers/GD32F4xx_standard_peripheral/Source/gd32f4xx_usart.c ****     \brief   configure USART word length
 166:Drivers/GD32F4xx_standard_peripheral/Source/gd32f4xx_usart.c ****     \param[in] usart_periph: USARTx(x=0,1,2,5)/UARTx(x=3,4,6,7)
 167:Drivers/GD32F4xx_standard_peripheral/Source/gd32f4xx_usart.c ****     \param[in] wlen: USART word length configure
 168:Drivers/GD32F4xx_standard_peripheral/Source/gd32f4xx_usart.c ****                only one parameter can be selected which is shown as below:
 169:Drivers/GD32F4xx_standard_peripheral/Source/gd32f4xx_usart.c ****       \arg       USART_WL_8BIT: 8 bits
 170:Drivers/GD32F4xx_standard_peripheral/Source/gd32f4xx_usart.c ****       \arg       USART_WL_9BIT: 9 bits
 171:Drivers/GD32F4xx_standard_peripheral/Source/gd32f4xx_usart.c ****     \param[out] none
ARM GAS  /tmp/ccWYTPow.s 			page 11


 172:Drivers/GD32F4xx_standard_peripheral/Source/gd32f4xx_usart.c ****     \retval     none
 173:Drivers/GD32F4xx_standard_peripheral/Source/gd32f4xx_usart.c **** */
 174:Drivers/GD32F4xx_standard_peripheral/Source/gd32f4xx_usart.c **** void usart_word_length_set(uint32_t usart_periph, uint32_t wlen)
 175:Drivers/GD32F4xx_standard_peripheral/Source/gd32f4xx_usart.c **** {
 357              		.loc 1 175 1 is_stmt 1 view -0
 358              		.cfi_startproc
 359              		@ args = 0, pretend = 0, frame = 0
 360              		@ frame_needed = 0, uses_anonymous_args = 0
 361              		@ link register save eliminated.
 176:Drivers/GD32F4xx_standard_peripheral/Source/gd32f4xx_usart.c ****     /* clear USART_CTL0 WL bit */
 177:Drivers/GD32F4xx_standard_peripheral/Source/gd32f4xx_usart.c ****     USART_CTL0(usart_periph) &= ~USART_CTL0_WL;
 362              		.loc 1 177 5 view .LVU81
 363 0000 C368     		ldr	r3, [r0, #12]
 364              		.loc 1 177 30 is_stmt 0 view .LVU82
 365 0002 23F48053 		bic	r3, r3, #4096
 366 0006 C360     		str	r3, [r0, #12]
 178:Drivers/GD32F4xx_standard_peripheral/Source/gd32f4xx_usart.c ****     /* configure USART word length */
 179:Drivers/GD32F4xx_standard_peripheral/Source/gd32f4xx_usart.c ****     USART_CTL0(usart_periph) |= wlen;
 367              		.loc 1 179 5 is_stmt 1 view .LVU83
 368 0008 C368     		ldr	r3, [r0, #12]
 369              		.loc 1 179 30 is_stmt 0 view .LVU84
 370 000a 0B43     		orrs	r3, r3, r1
 371 000c C360     		str	r3, [r0, #12]
 180:Drivers/GD32F4xx_standard_peripheral/Source/gd32f4xx_usart.c **** }
 372              		.loc 1 180 1 view .LVU85
 373 000e 7047     		bx	lr
 374              		.cfi_endproc
 375              	.LFE119:
 377              		.section	.text.usart_stop_bit_set,"ax",%progbits
 378              		.align	1
 379              		.global	usart_stop_bit_set
 380              		.syntax unified
 381              		.thumb
 382              		.thumb_func
 384              	usart_stop_bit_set:
 385              	.LVL39:
 386              	.LFB120:
 181:Drivers/GD32F4xx_standard_peripheral/Source/gd32f4xx_usart.c **** 
 182:Drivers/GD32F4xx_standard_peripheral/Source/gd32f4xx_usart.c **** /*!
 183:Drivers/GD32F4xx_standard_peripheral/Source/gd32f4xx_usart.c ****     \brief   configure USART stop bit length
 184:Drivers/GD32F4xx_standard_peripheral/Source/gd32f4xx_usart.c ****     \param[in] usart_periph: USARTx(x=0,1,2,5)/UARTx(x=3,4,6,7)
 185:Drivers/GD32F4xx_standard_peripheral/Source/gd32f4xx_usart.c ****     \param[in] stblen: USART stop bit configure
 186:Drivers/GD32F4xx_standard_peripheral/Source/gd32f4xx_usart.c ****                only one parameter can be selected which is shown as below:
 187:Drivers/GD32F4xx_standard_peripheral/Source/gd32f4xx_usart.c ****       \arg       USART_STB_1BIT:   1 bit
 188:Drivers/GD32F4xx_standard_peripheral/Source/gd32f4xx_usart.c ****       \arg       USART_STB_0_5BIT: 0.5 bit(not available for UARTx(x=3,4,6,7))
 189:Drivers/GD32F4xx_standard_peripheral/Source/gd32f4xx_usart.c ****       \arg       USART_STB_2BIT:   2 bits
 190:Drivers/GD32F4xx_standard_peripheral/Source/gd32f4xx_usart.c ****       \arg       USART_STB_1_5BIT: 1.5 bits(not available for UARTx(x=3,4,6,7))
 191:Drivers/GD32F4xx_standard_peripheral/Source/gd32f4xx_usart.c ****     \param[out] none
 192:Drivers/GD32F4xx_standard_peripheral/Source/gd32f4xx_usart.c ****     \retval     none
 193:Drivers/GD32F4xx_standard_peripheral/Source/gd32f4xx_usart.c **** */
 194:Drivers/GD32F4xx_standard_peripheral/Source/gd32f4xx_usart.c **** void usart_stop_bit_set(uint32_t usart_periph, uint32_t stblen)
 195:Drivers/GD32F4xx_standard_peripheral/Source/gd32f4xx_usart.c **** {
 387              		.loc 1 195 1 is_stmt 1 view -0
 388              		.cfi_startproc
 389              		@ args = 0, pretend = 0, frame = 0
 390              		@ frame_needed = 0, uses_anonymous_args = 0
 391              		@ link register save eliminated.
ARM GAS  /tmp/ccWYTPow.s 			page 12


 196:Drivers/GD32F4xx_standard_peripheral/Source/gd32f4xx_usart.c ****     /* clear USART_CTL1 STB bits */
 197:Drivers/GD32F4xx_standard_peripheral/Source/gd32f4xx_usart.c ****     USART_CTL1(usart_periph) &= ~USART_CTL1_STB;
 392              		.loc 1 197 5 view .LVU87
 393 0000 0369     		ldr	r3, [r0, #16]
 394              		.loc 1 197 30 is_stmt 0 view .LVU88
 395 0002 23F44053 		bic	r3, r3, #12288
 396 0006 0361     		str	r3, [r0, #16]
 198:Drivers/GD32F4xx_standard_peripheral/Source/gd32f4xx_usart.c ****     /* configure USART stop bits */
 199:Drivers/GD32F4xx_standard_peripheral/Source/gd32f4xx_usart.c ****     USART_CTL1(usart_periph) |= stblen;
 397              		.loc 1 199 5 is_stmt 1 view .LVU89
 398 0008 0369     		ldr	r3, [r0, #16]
 399              		.loc 1 199 30 is_stmt 0 view .LVU90
 400 000a 0B43     		orrs	r3, r3, r1
 401 000c 0361     		str	r3, [r0, #16]
 200:Drivers/GD32F4xx_standard_peripheral/Source/gd32f4xx_usart.c **** }
 402              		.loc 1 200 1 view .LVU91
 403 000e 7047     		bx	lr
 404              		.cfi_endproc
 405              	.LFE120:
 407              		.section	.text.usart_enable,"ax",%progbits
 408              		.align	1
 409              		.global	usart_enable
 410              		.syntax unified
 411              		.thumb
 412              		.thumb_func
 414              	usart_enable:
 415              	.LVL40:
 416              	.LFB121:
 201:Drivers/GD32F4xx_standard_peripheral/Source/gd32f4xx_usart.c **** /*!
 202:Drivers/GD32F4xx_standard_peripheral/Source/gd32f4xx_usart.c ****     \brief    enable USART
 203:Drivers/GD32F4xx_standard_peripheral/Source/gd32f4xx_usart.c ****     \param[in]  usart_periph: USARTx(x=0,1,2,5)/UARTx(x=3,4,6,7)
 204:Drivers/GD32F4xx_standard_peripheral/Source/gd32f4xx_usart.c ****     \param[out] none
 205:Drivers/GD32F4xx_standard_peripheral/Source/gd32f4xx_usart.c ****     \retval     none
 206:Drivers/GD32F4xx_standard_peripheral/Source/gd32f4xx_usart.c **** */
 207:Drivers/GD32F4xx_standard_peripheral/Source/gd32f4xx_usart.c **** void usart_enable(uint32_t usart_periph)
 208:Drivers/GD32F4xx_standard_peripheral/Source/gd32f4xx_usart.c **** {
 417              		.loc 1 208 1 is_stmt 1 view -0
 418              		.cfi_startproc
 419              		@ args = 0, pretend = 0, frame = 0
 420              		@ frame_needed = 0, uses_anonymous_args = 0
 421              		@ link register save eliminated.
 209:Drivers/GD32F4xx_standard_peripheral/Source/gd32f4xx_usart.c ****     USART_CTL0(usart_periph) |= USART_CTL0_UEN;
 422              		.loc 1 209 5 view .LVU93
 423 0000 C368     		ldr	r3, [r0, #12]
 424              		.loc 1 209 30 is_stmt 0 view .LVU94
 425 0002 43F40053 		orr	r3, r3, #8192
 426 0006 C360     		str	r3, [r0, #12]
 210:Drivers/GD32F4xx_standard_peripheral/Source/gd32f4xx_usart.c **** }
 427              		.loc 1 210 1 view .LVU95
 428 0008 7047     		bx	lr
 429              		.cfi_endproc
 430              	.LFE121:
 432              		.section	.text.usart_disable,"ax",%progbits
 433              		.align	1
 434              		.global	usart_disable
 435              		.syntax unified
 436              		.thumb
ARM GAS  /tmp/ccWYTPow.s 			page 13


 437              		.thumb_func
 439              	usart_disable:
 440              	.LVL41:
 441              	.LFB122:
 211:Drivers/GD32F4xx_standard_peripheral/Source/gd32f4xx_usart.c **** 
 212:Drivers/GD32F4xx_standard_peripheral/Source/gd32f4xx_usart.c **** /*!
 213:Drivers/GD32F4xx_standard_peripheral/Source/gd32f4xx_usart.c ****     \brief   disable USART
 214:Drivers/GD32F4xx_standard_peripheral/Source/gd32f4xx_usart.c ****     \param[in] usart_periph: USARTx(x=0,1,2,5)/UARTx(x=3,4,6,7)
 215:Drivers/GD32F4xx_standard_peripheral/Source/gd32f4xx_usart.c ****     \param[out] none
 216:Drivers/GD32F4xx_standard_peripheral/Source/gd32f4xx_usart.c ****     \retval     none
 217:Drivers/GD32F4xx_standard_peripheral/Source/gd32f4xx_usart.c **** */
 218:Drivers/GD32F4xx_standard_peripheral/Source/gd32f4xx_usart.c **** void usart_disable(uint32_t usart_periph)
 219:Drivers/GD32F4xx_standard_peripheral/Source/gd32f4xx_usart.c **** {
 442              		.loc 1 219 1 is_stmt 1 view -0
 443              		.cfi_startproc
 444              		@ args = 0, pretend = 0, frame = 0
 445              		@ frame_needed = 0, uses_anonymous_args = 0
 446              		@ link register save eliminated.
 220:Drivers/GD32F4xx_standard_peripheral/Source/gd32f4xx_usart.c ****     USART_CTL0(usart_periph) &= ~(USART_CTL0_UEN);
 447              		.loc 1 220 5 view .LVU97
 448 0000 C368     		ldr	r3, [r0, #12]
 449              		.loc 1 220 30 is_stmt 0 view .LVU98
 450 0002 23F40053 		bic	r3, r3, #8192
 451 0006 C360     		str	r3, [r0, #12]
 221:Drivers/GD32F4xx_standard_peripheral/Source/gd32f4xx_usart.c **** }
 452              		.loc 1 221 1 view .LVU99
 453 0008 7047     		bx	lr
 454              		.cfi_endproc
 455              	.LFE122:
 457              		.section	.text.usart_transmit_config,"ax",%progbits
 458              		.align	1
 459              		.global	usart_transmit_config
 460              		.syntax unified
 461              		.thumb
 462              		.thumb_func
 464              	usart_transmit_config:
 465              	.LVL42:
 466              	.LFB123:
 222:Drivers/GD32F4xx_standard_peripheral/Source/gd32f4xx_usart.c **** 
 223:Drivers/GD32F4xx_standard_peripheral/Source/gd32f4xx_usart.c **** /*!
 224:Drivers/GD32F4xx_standard_peripheral/Source/gd32f4xx_usart.c ****     \brief    configure USART transmitter
 225:Drivers/GD32F4xx_standard_peripheral/Source/gd32f4xx_usart.c ****     \param[in]  usart_periph: USARTx(x=0,1,2,5)/UARTx(x=3,4,6,7)
 226:Drivers/GD32F4xx_standard_peripheral/Source/gd32f4xx_usart.c ****     \param[in]  txconfig: enable or disable USART transmitter
 227:Drivers/GD32F4xx_standard_peripheral/Source/gd32f4xx_usart.c ****                 only one parameter can be selected which is shown as below:
 228:Drivers/GD32F4xx_standard_peripheral/Source/gd32f4xx_usart.c ****       \arg        USART_TRANSMIT_ENABLE: enable USART transmission
 229:Drivers/GD32F4xx_standard_peripheral/Source/gd32f4xx_usart.c ****       \arg        USART_TRANSMIT_DISABLE: enable USART transmission
 230:Drivers/GD32F4xx_standard_peripheral/Source/gd32f4xx_usart.c ****     \param[out] none
 231:Drivers/GD32F4xx_standard_peripheral/Source/gd32f4xx_usart.c ****     \retval     none
 232:Drivers/GD32F4xx_standard_peripheral/Source/gd32f4xx_usart.c **** */
 233:Drivers/GD32F4xx_standard_peripheral/Source/gd32f4xx_usart.c **** void usart_transmit_config(uint32_t usart_periph, uint32_t txconfig)
 234:Drivers/GD32F4xx_standard_peripheral/Source/gd32f4xx_usart.c **** {
 467              		.loc 1 234 1 is_stmt 1 view -0
 468              		.cfi_startproc
 469              		@ args = 0, pretend = 0, frame = 0
 470              		@ frame_needed = 0, uses_anonymous_args = 0
 471              		@ link register save eliminated.
 235:Drivers/GD32F4xx_standard_peripheral/Source/gd32f4xx_usart.c ****     uint32_t ctl = 0U;
ARM GAS  /tmp/ccWYTPow.s 			page 14


 472              		.loc 1 235 5 view .LVU101
 236:Drivers/GD32F4xx_standard_peripheral/Source/gd32f4xx_usart.c **** 
 237:Drivers/GD32F4xx_standard_peripheral/Source/gd32f4xx_usart.c ****     ctl = USART_CTL0(usart_periph);
 473              		.loc 1 237 5 view .LVU102
 474              		.loc 1 237 9 is_stmt 0 view .LVU103
 475 0000 C368     		ldr	r3, [r0, #12]
 476              	.LVL43:
 238:Drivers/GD32F4xx_standard_peripheral/Source/gd32f4xx_usart.c ****     ctl &= ~USART_CTL0_TEN;
 477              		.loc 1 238 5 is_stmt 1 view .LVU104
 478              		.loc 1 238 9 is_stmt 0 view .LVU105
 479 0002 23F00803 		bic	r3, r3, #8
 480              	.LVL44:
 239:Drivers/GD32F4xx_standard_peripheral/Source/gd32f4xx_usart.c ****     ctl |= txconfig;
 481              		.loc 1 239 5 is_stmt 1 view .LVU106
 482              		.loc 1 239 9 is_stmt 0 view .LVU107
 483 0006 0B43     		orrs	r3, r3, r1
 484              	.LVL45:
 240:Drivers/GD32F4xx_standard_peripheral/Source/gd32f4xx_usart.c ****     /* configure transfer mode */
 241:Drivers/GD32F4xx_standard_peripheral/Source/gd32f4xx_usart.c ****     USART_CTL0(usart_periph) = ctl;
 485              		.loc 1 241 5 is_stmt 1 view .LVU108
 486              		.loc 1 241 30 is_stmt 0 view .LVU109
 487 0008 C360     		str	r3, [r0, #12]
 242:Drivers/GD32F4xx_standard_peripheral/Source/gd32f4xx_usart.c **** }
 488              		.loc 1 242 1 view .LVU110
 489 000a 7047     		bx	lr
 490              		.cfi_endproc
 491              	.LFE123:
 493              		.section	.text.usart_receive_config,"ax",%progbits
 494              		.align	1
 495              		.global	usart_receive_config
 496              		.syntax unified
 497              		.thumb
 498              		.thumb_func
 500              	usart_receive_config:
 501              	.LVL46:
 502              	.LFB124:
 243:Drivers/GD32F4xx_standard_peripheral/Source/gd32f4xx_usart.c **** 
 244:Drivers/GD32F4xx_standard_peripheral/Source/gd32f4xx_usart.c **** /*!
 245:Drivers/GD32F4xx_standard_peripheral/Source/gd32f4xx_usart.c ****     \brief    configure USART receiver
 246:Drivers/GD32F4xx_standard_peripheral/Source/gd32f4xx_usart.c ****     \param[in]  usart_periph: USARTx(x=0,1,2,5)/UARTx(x=3,4,6,7)
 247:Drivers/GD32F4xx_standard_peripheral/Source/gd32f4xx_usart.c ****     \param[in]  rxconfig: enable or disable USART receiver
 248:Drivers/GD32F4xx_standard_peripheral/Source/gd32f4xx_usart.c ****                 only one parameter can be selected which is shown as below:
 249:Drivers/GD32F4xx_standard_peripheral/Source/gd32f4xx_usart.c ****       \arg        USART_RECEIVE_ENABLE: enable USART reception
 250:Drivers/GD32F4xx_standard_peripheral/Source/gd32f4xx_usart.c ****       \arg        USART_RECEIVE_DISABLE: disable USART reception
 251:Drivers/GD32F4xx_standard_peripheral/Source/gd32f4xx_usart.c ****     \param[out] none
 252:Drivers/GD32F4xx_standard_peripheral/Source/gd32f4xx_usart.c ****     \retval     none
 253:Drivers/GD32F4xx_standard_peripheral/Source/gd32f4xx_usart.c **** */
 254:Drivers/GD32F4xx_standard_peripheral/Source/gd32f4xx_usart.c **** void usart_receive_config(uint32_t usart_periph, uint32_t rxconfig)
 255:Drivers/GD32F4xx_standard_peripheral/Source/gd32f4xx_usart.c **** {
 503              		.loc 1 255 1 is_stmt 1 view -0
 504              		.cfi_startproc
 505              		@ args = 0, pretend = 0, frame = 0
 506              		@ frame_needed = 0, uses_anonymous_args = 0
 507              		@ link register save eliminated.
 256:Drivers/GD32F4xx_standard_peripheral/Source/gd32f4xx_usart.c ****     uint32_t ctl = 0U;
 508              		.loc 1 256 5 view .LVU112
 257:Drivers/GD32F4xx_standard_peripheral/Source/gd32f4xx_usart.c **** 
ARM GAS  /tmp/ccWYTPow.s 			page 15


 258:Drivers/GD32F4xx_standard_peripheral/Source/gd32f4xx_usart.c ****     ctl = USART_CTL0(usart_periph);
 509              		.loc 1 258 5 view .LVU113
 510              		.loc 1 258 9 is_stmt 0 view .LVU114
 511 0000 C368     		ldr	r3, [r0, #12]
 512              	.LVL47:
 259:Drivers/GD32F4xx_standard_peripheral/Source/gd32f4xx_usart.c ****     ctl &= ~USART_CTL0_REN;
 513              		.loc 1 259 5 is_stmt 1 view .LVU115
 514              		.loc 1 259 9 is_stmt 0 view .LVU116
 515 0002 23F00403 		bic	r3, r3, #4
 516              	.LVL48:
 260:Drivers/GD32F4xx_standard_peripheral/Source/gd32f4xx_usart.c ****     ctl |= rxconfig;
 517              		.loc 1 260 5 is_stmt 1 view .LVU117
 518              		.loc 1 260 9 is_stmt 0 view .LVU118
 519 0006 0B43     		orrs	r3, r3, r1
 520              	.LVL49:
 261:Drivers/GD32F4xx_standard_peripheral/Source/gd32f4xx_usart.c ****     /* configure transfer mode */
 262:Drivers/GD32F4xx_standard_peripheral/Source/gd32f4xx_usart.c ****     USART_CTL0(usart_periph) = ctl;
 521              		.loc 1 262 5 is_stmt 1 view .LVU119
 522              		.loc 1 262 30 is_stmt 0 view .LVU120
 523 0008 C360     		str	r3, [r0, #12]
 263:Drivers/GD32F4xx_standard_peripheral/Source/gd32f4xx_usart.c **** }
 524              		.loc 1 263 1 view .LVU121
 525 000a 7047     		bx	lr
 526              		.cfi_endproc
 527              	.LFE124:
 529              		.section	.text.usart_data_first_config,"ax",%progbits
 530              		.align	1
 531              		.global	usart_data_first_config
 532              		.syntax unified
 533              		.thumb
 534              		.thumb_func
 536              	usart_data_first_config:
 537              	.LVL50:
 538              	.LFB125:
 264:Drivers/GD32F4xx_standard_peripheral/Source/gd32f4xx_usart.c **** 
 265:Drivers/GD32F4xx_standard_peripheral/Source/gd32f4xx_usart.c **** /*!
 266:Drivers/GD32F4xx_standard_peripheral/Source/gd32f4xx_usart.c ****     \brief    data is transmitted/received with the LSB/MSB first
 267:Drivers/GD32F4xx_standard_peripheral/Source/gd32f4xx_usart.c ****     \param[in]  usart_periph: USARTx(x=0,1,2,5)
 268:Drivers/GD32F4xx_standard_peripheral/Source/gd32f4xx_usart.c ****     \param[in]  msbf: LSB/MSB
 269:Drivers/GD32F4xx_standard_peripheral/Source/gd32f4xx_usart.c ****                 only one parameter can be selected which is shown as below:
 270:Drivers/GD32F4xx_standard_peripheral/Source/gd32f4xx_usart.c ****       \arg        USART_MSBF_LSB: LSB first
 271:Drivers/GD32F4xx_standard_peripheral/Source/gd32f4xx_usart.c ****       \arg        USART_MSBF_MSB: MSB first
 272:Drivers/GD32F4xx_standard_peripheral/Source/gd32f4xx_usart.c ****     \param[out] none
 273:Drivers/GD32F4xx_standard_peripheral/Source/gd32f4xx_usart.c ****     \retval     none
 274:Drivers/GD32F4xx_standard_peripheral/Source/gd32f4xx_usart.c **** */
 275:Drivers/GD32F4xx_standard_peripheral/Source/gd32f4xx_usart.c **** void usart_data_first_config(uint32_t usart_periph, uint32_t msbf)
 276:Drivers/GD32F4xx_standard_peripheral/Source/gd32f4xx_usart.c **** {
 539              		.loc 1 276 1 is_stmt 1 view -0
 540              		.cfi_startproc
 541              		@ args = 0, pretend = 0, frame = 0
 542              		@ frame_needed = 0, uses_anonymous_args = 0
 543              		@ link register save eliminated.
 277:Drivers/GD32F4xx_standard_peripheral/Source/gd32f4xx_usart.c ****     uint32_t ctl = 0U;
 544              		.loc 1 277 5 view .LVU123
 278:Drivers/GD32F4xx_standard_peripheral/Source/gd32f4xx_usart.c **** 
 279:Drivers/GD32F4xx_standard_peripheral/Source/gd32f4xx_usart.c ****     ctl = USART_CTL3(usart_periph);
 545              		.loc 1 279 5 view .LVU124
ARM GAS  /tmp/ccWYTPow.s 			page 16


 546              		.loc 1 279 9 is_stmt 0 view .LVU125
 547 0000 D0F88030 		ldr	r3, [r0, #128]
 548              	.LVL51:
 280:Drivers/GD32F4xx_standard_peripheral/Source/gd32f4xx_usart.c ****     ctl &= ~(USART_CTL3_MSBF);
 549              		.loc 1 280 5 is_stmt 1 view .LVU126
 550              		.loc 1 280 9 is_stmt 0 view .LVU127
 551 0004 23F40063 		bic	r3, r3, #2048
 552              	.LVL52:
 281:Drivers/GD32F4xx_standard_peripheral/Source/gd32f4xx_usart.c ****     ctl |= msbf;
 553              		.loc 1 281 5 is_stmt 1 view .LVU128
 554              		.loc 1 281 9 is_stmt 0 view .LVU129
 555 0008 0B43     		orrs	r3, r3, r1
 556              	.LVL53:
 282:Drivers/GD32F4xx_standard_peripheral/Source/gd32f4xx_usart.c ****     /* configure data transmitted/received mode */
 283:Drivers/GD32F4xx_standard_peripheral/Source/gd32f4xx_usart.c ****     USART_CTL3(usart_periph) = ctl;
 557              		.loc 1 283 5 is_stmt 1 view .LVU130
 558              		.loc 1 283 30 is_stmt 0 view .LVU131
 559 000a C0F88030 		str	r3, [r0, #128]
 284:Drivers/GD32F4xx_standard_peripheral/Source/gd32f4xx_usart.c **** }
 560              		.loc 1 284 1 view .LVU132
 561 000e 7047     		bx	lr
 562              		.cfi_endproc
 563              	.LFE125:
 565              		.section	.text.usart_invert_config,"ax",%progbits
 566              		.align	1
 567              		.global	usart_invert_config
 568              		.syntax unified
 569              		.thumb
 570              		.thumb_func
 572              	usart_invert_config:
 573              	.LVL54:
 574              	.LFB126:
 285:Drivers/GD32F4xx_standard_peripheral/Source/gd32f4xx_usart.c **** 
 286:Drivers/GD32F4xx_standard_peripheral/Source/gd32f4xx_usart.c **** /*!
 287:Drivers/GD32F4xx_standard_peripheral/Source/gd32f4xx_usart.c ****     \brief    configure USART inversion
 288:Drivers/GD32F4xx_standard_peripheral/Source/gd32f4xx_usart.c ****     \param[in]  usart_periph: USARTx(x=0,1,2,5)
 289:Drivers/GD32F4xx_standard_peripheral/Source/gd32f4xx_usart.c ****     \param[in]  invertpara: refer to enum USART_INVERT_CONFIG
 290:Drivers/GD32F4xx_standard_peripheral/Source/gd32f4xx_usart.c ****                 only one parameter can be selected which is shown as below:
 291:Drivers/GD32F4xx_standard_peripheral/Source/gd32f4xx_usart.c ****       \arg        USART_DINV_ENABLE: data bit level inversion
 292:Drivers/GD32F4xx_standard_peripheral/Source/gd32f4xx_usart.c ****       \arg        USART_DINV_DISABLE: data bit level not inversion
 293:Drivers/GD32F4xx_standard_peripheral/Source/gd32f4xx_usart.c ****       \arg        USART_TXPIN_ENABLE: TX pin level inversion
 294:Drivers/GD32F4xx_standard_peripheral/Source/gd32f4xx_usart.c ****       \arg        USART_TXPIN_DISABLE: TX pin level not inversion
 295:Drivers/GD32F4xx_standard_peripheral/Source/gd32f4xx_usart.c ****       \arg        USART_RXPIN_ENABLE: RX pin level inversion
 296:Drivers/GD32F4xx_standard_peripheral/Source/gd32f4xx_usart.c ****       \arg        USART_RXPIN_DISABLE: RX pin level not inversion
 297:Drivers/GD32F4xx_standard_peripheral/Source/gd32f4xx_usart.c ****     \param[out] none
 298:Drivers/GD32F4xx_standard_peripheral/Source/gd32f4xx_usart.c ****     \retval     none
 299:Drivers/GD32F4xx_standard_peripheral/Source/gd32f4xx_usart.c **** */
 300:Drivers/GD32F4xx_standard_peripheral/Source/gd32f4xx_usart.c **** void usart_invert_config(uint32_t usart_periph, usart_invert_enum invertpara)
 301:Drivers/GD32F4xx_standard_peripheral/Source/gd32f4xx_usart.c **** {
 575              		.loc 1 301 1 is_stmt 1 view -0
 576              		.cfi_startproc
 577              		@ args = 0, pretend = 0, frame = 0
 578              		@ frame_needed = 0, uses_anonymous_args = 0
 579              		@ link register save eliminated.
 302:Drivers/GD32F4xx_standard_peripheral/Source/gd32f4xx_usart.c ****     /* inverted or not the specified siginal */
 303:Drivers/GD32F4xx_standard_peripheral/Source/gd32f4xx_usart.c ****     switch(invertpara) {
 580              		.loc 1 303 5 view .LVU134
ARM GAS  /tmp/ccWYTPow.s 			page 17


 581 0000 0529     		cmp	r1, #5
 582 0002 0AD8     		bhi	.L39
 583 0004 DFE801F0 		tbb	[pc, r1]
 584              	.L42:
 585 0008 03       		.byte	(.L47-.L42)/2
 586 0009 14       		.byte	(.L46-.L42)/2
 587 000a 0A       		.byte	(.L45-.L42)/2
 588 000b 19       		.byte	(.L44-.L42)/2
 589 000c 0F       		.byte	(.L43-.L42)/2
 590 000d 1E       		.byte	(.L41-.L42)/2
 591              		.p2align 1
 592              	.L47:
 304:Drivers/GD32F4xx_standard_peripheral/Source/gd32f4xx_usart.c ****     case USART_DINV_ENABLE:
 305:Drivers/GD32F4xx_standard_peripheral/Source/gd32f4xx_usart.c ****         USART_CTL3(usart_periph) |= USART_CTL3_DINV;
 593              		.loc 1 305 9 view .LVU135
 594 000e D0F88030 		ldr	r3, [r0, #128]
 595              		.loc 1 305 34 is_stmt 0 view .LVU136
 596 0012 43F48063 		orr	r3, r3, #1024
 597              	.L49:
 306:Drivers/GD32F4xx_standard_peripheral/Source/gd32f4xx_usart.c ****         break;
 307:Drivers/GD32F4xx_standard_peripheral/Source/gd32f4xx_usart.c ****     case USART_TXPIN_ENABLE:
 308:Drivers/GD32F4xx_standard_peripheral/Source/gd32f4xx_usart.c ****         USART_CTL3(usart_periph) |= USART_CTL3_TINV;
 309:Drivers/GD32F4xx_standard_peripheral/Source/gd32f4xx_usart.c ****         break;
 310:Drivers/GD32F4xx_standard_peripheral/Source/gd32f4xx_usart.c ****     case USART_RXPIN_ENABLE:
 311:Drivers/GD32F4xx_standard_peripheral/Source/gd32f4xx_usart.c ****         USART_CTL3(usart_periph) |= USART_CTL3_RINV;
 312:Drivers/GD32F4xx_standard_peripheral/Source/gd32f4xx_usart.c ****         break;
 313:Drivers/GD32F4xx_standard_peripheral/Source/gd32f4xx_usart.c ****     case USART_DINV_DISABLE:
 314:Drivers/GD32F4xx_standard_peripheral/Source/gd32f4xx_usart.c ****         USART_CTL3(usart_periph) &= ~(USART_CTL3_DINV);
 315:Drivers/GD32F4xx_standard_peripheral/Source/gd32f4xx_usart.c ****         break;
 316:Drivers/GD32F4xx_standard_peripheral/Source/gd32f4xx_usart.c ****     case USART_TXPIN_DISABLE:
 317:Drivers/GD32F4xx_standard_peripheral/Source/gd32f4xx_usart.c ****         USART_CTL3(usart_periph) &= ~(USART_CTL3_TINV);
 318:Drivers/GD32F4xx_standard_peripheral/Source/gd32f4xx_usart.c ****         break;
 319:Drivers/GD32F4xx_standard_peripheral/Source/gd32f4xx_usart.c ****     case USART_RXPIN_DISABLE:
 320:Drivers/GD32F4xx_standard_peripheral/Source/gd32f4xx_usart.c ****         USART_CTL3(usart_periph) &= ~(USART_CTL3_RINV);
 598              		.loc 1 320 34 view .LVU137
 599 0016 C0F88030 		str	r3, [r0, #128]
 321:Drivers/GD32F4xx_standard_peripheral/Source/gd32f4xx_usart.c ****         break;
 600              		.loc 1 321 9 is_stmt 1 view .LVU138
 601              	.L39:
 322:Drivers/GD32F4xx_standard_peripheral/Source/gd32f4xx_usart.c ****     default:
 323:Drivers/GD32F4xx_standard_peripheral/Source/gd32f4xx_usart.c ****         break;
 324:Drivers/GD32F4xx_standard_peripheral/Source/gd32f4xx_usart.c ****     }
 325:Drivers/GD32F4xx_standard_peripheral/Source/gd32f4xx_usart.c **** }
 602              		.loc 1 325 1 is_stmt 0 view .LVU139
 603 001a 7047     		bx	lr
 604              	.L45:
 308:Drivers/GD32F4xx_standard_peripheral/Source/gd32f4xx_usart.c ****         break;
 605              		.loc 1 308 9 is_stmt 1 view .LVU140
 606 001c D0F88030 		ldr	r3, [r0, #128]
 308:Drivers/GD32F4xx_standard_peripheral/Source/gd32f4xx_usart.c ****         break;
 607              		.loc 1 308 34 is_stmt 0 view .LVU141
 608 0020 43F40073 		orr	r3, r3, #512
 609 0024 F7E7     		b	.L49
 610              	.L43:
 311:Drivers/GD32F4xx_standard_peripheral/Source/gd32f4xx_usart.c ****         break;
 611              		.loc 1 311 9 is_stmt 1 view .LVU142
 612 0026 D0F88030 		ldr	r3, [r0, #128]
ARM GAS  /tmp/ccWYTPow.s 			page 18


 311:Drivers/GD32F4xx_standard_peripheral/Source/gd32f4xx_usart.c ****         break;
 613              		.loc 1 311 34 is_stmt 0 view .LVU143
 614 002a 43F48073 		orr	r3, r3, #256
 615 002e F2E7     		b	.L49
 616              	.L46:
 314:Drivers/GD32F4xx_standard_peripheral/Source/gd32f4xx_usart.c ****         break;
 617              		.loc 1 314 9 is_stmt 1 view .LVU144
 618 0030 D0F88030 		ldr	r3, [r0, #128]
 314:Drivers/GD32F4xx_standard_peripheral/Source/gd32f4xx_usart.c ****         break;
 619              		.loc 1 314 34 is_stmt 0 view .LVU145
 620 0034 23F48063 		bic	r3, r3, #1024
 621 0038 EDE7     		b	.L49
 622              	.L44:
 317:Drivers/GD32F4xx_standard_peripheral/Source/gd32f4xx_usart.c ****         break;
 623              		.loc 1 317 9 is_stmt 1 view .LVU146
 624 003a D0F88030 		ldr	r3, [r0, #128]
 317:Drivers/GD32F4xx_standard_peripheral/Source/gd32f4xx_usart.c ****         break;
 625              		.loc 1 317 34 is_stmt 0 view .LVU147
 626 003e 23F40073 		bic	r3, r3, #512
 627 0042 E8E7     		b	.L49
 628              	.L41:
 320:Drivers/GD32F4xx_standard_peripheral/Source/gd32f4xx_usart.c ****         break;
 629              		.loc 1 320 9 is_stmt 1 view .LVU148
 630 0044 D0F88030 		ldr	r3, [r0, #128]
 320:Drivers/GD32F4xx_standard_peripheral/Source/gd32f4xx_usart.c ****         break;
 631              		.loc 1 320 34 is_stmt 0 view .LVU149
 632 0048 23F48073 		bic	r3, r3, #256
 633 004c E3E7     		b	.L49
 634              		.cfi_endproc
 635              	.LFE126:
 637              		.section	.text.usart_oversample_config,"ax",%progbits
 638              		.align	1
 639              		.global	usart_oversample_config
 640              		.syntax unified
 641              		.thumb
 642              		.thumb_func
 644              	usart_oversample_config:
 645              	.LVL55:
 646              	.LFB127:
 326:Drivers/GD32F4xx_standard_peripheral/Source/gd32f4xx_usart.c **** 
 327:Drivers/GD32F4xx_standard_peripheral/Source/gd32f4xx_usart.c **** /*!
 328:Drivers/GD32F4xx_standard_peripheral/Source/gd32f4xx_usart.c ****     \brief    configure the USART oversample mode
 329:Drivers/GD32F4xx_standard_peripheral/Source/gd32f4xx_usart.c ****     \param[in]  usart_periph: USARTx(x=0,1,2,5)/UARTx(x=3,4,6,7)
 330:Drivers/GD32F4xx_standard_peripheral/Source/gd32f4xx_usart.c ****     \param[in]  oversamp: oversample value
 331:Drivers/GD32F4xx_standard_peripheral/Source/gd32f4xx_usart.c ****                 only one parameter can be selected which is shown as below:
 332:Drivers/GD32F4xx_standard_peripheral/Source/gd32f4xx_usart.c ****       \arg        USART_OVSMOD_8: 8 bits
 333:Drivers/GD32F4xx_standard_peripheral/Source/gd32f4xx_usart.c ****       \arg        USART_OVSMOD_16: 16 bits
 334:Drivers/GD32F4xx_standard_peripheral/Source/gd32f4xx_usart.c ****     \param[out] none
 335:Drivers/GD32F4xx_standard_peripheral/Source/gd32f4xx_usart.c ****     \retval     none
 336:Drivers/GD32F4xx_standard_peripheral/Source/gd32f4xx_usart.c **** */
 337:Drivers/GD32F4xx_standard_peripheral/Source/gd32f4xx_usart.c **** void usart_oversample_config(uint32_t usart_periph, uint32_t oversamp)
 338:Drivers/GD32F4xx_standard_peripheral/Source/gd32f4xx_usart.c **** {
 647              		.loc 1 338 1 is_stmt 1 view -0
 648              		.cfi_startproc
 649              		@ args = 0, pretend = 0, frame = 0
 650              		@ frame_needed = 0, uses_anonymous_args = 0
 651              		@ link register save eliminated.
ARM GAS  /tmp/ccWYTPow.s 			page 19


 339:Drivers/GD32F4xx_standard_peripheral/Source/gd32f4xx_usart.c ****     /*  clear OVSMOD bit */
 340:Drivers/GD32F4xx_standard_peripheral/Source/gd32f4xx_usart.c ****     USART_CTL0(usart_periph) &= ~(USART_CTL0_OVSMOD);
 652              		.loc 1 340 5 view .LVU151
 653 0000 C368     		ldr	r3, [r0, #12]
 654              		.loc 1 340 30 is_stmt 0 view .LVU152
 655 0002 23F40043 		bic	r3, r3, #32768
 656 0006 C360     		str	r3, [r0, #12]
 341:Drivers/GD32F4xx_standard_peripheral/Source/gd32f4xx_usart.c ****     USART_CTL0(usart_periph) |= oversamp;
 657              		.loc 1 341 5 is_stmt 1 view .LVU153
 658 0008 C368     		ldr	r3, [r0, #12]
 659              		.loc 1 341 30 is_stmt 0 view .LVU154
 660 000a 0B43     		orrs	r3, r3, r1
 661 000c C360     		str	r3, [r0, #12]
 342:Drivers/GD32F4xx_standard_peripheral/Source/gd32f4xx_usart.c **** }
 662              		.loc 1 342 1 view .LVU155
 663 000e 7047     		bx	lr
 664              		.cfi_endproc
 665              	.LFE127:
 667              		.section	.text.usart_sample_bit_config,"ax",%progbits
 668              		.align	1
 669              		.global	usart_sample_bit_config
 670              		.syntax unified
 671              		.thumb
 672              		.thumb_func
 674              	usart_sample_bit_config:
 675              	.LVL56:
 676              	.LFB128:
 343:Drivers/GD32F4xx_standard_peripheral/Source/gd32f4xx_usart.c **** 
 344:Drivers/GD32F4xx_standard_peripheral/Source/gd32f4xx_usart.c **** /*!
 345:Drivers/GD32F4xx_standard_peripheral/Source/gd32f4xx_usart.c ****     \brief    configure sample bit method
 346:Drivers/GD32F4xx_standard_peripheral/Source/gd32f4xx_usart.c ****     \param[in]  usart_periph: USARTx(x=0,1,2,5)/UARTx(x=3,4,6,7)
 347:Drivers/GD32F4xx_standard_peripheral/Source/gd32f4xx_usart.c ****     \param[in]  obsm: sample bit
 348:Drivers/GD32F4xx_standard_peripheral/Source/gd32f4xx_usart.c ****                 only one parameter can be selected which is shown as below:
 349:Drivers/GD32F4xx_standard_peripheral/Source/gd32f4xx_usart.c ****       \arg        USART_OSB_1bit: 1 bit
 350:Drivers/GD32F4xx_standard_peripheral/Source/gd32f4xx_usart.c ****       \arg        USART_OSB_3bit: 3 bits
 351:Drivers/GD32F4xx_standard_peripheral/Source/gd32f4xx_usart.c ****     \param[out] none
 352:Drivers/GD32F4xx_standard_peripheral/Source/gd32f4xx_usart.c ****     \retval     none
 353:Drivers/GD32F4xx_standard_peripheral/Source/gd32f4xx_usart.c **** */
 354:Drivers/GD32F4xx_standard_peripheral/Source/gd32f4xx_usart.c **** void usart_sample_bit_config(uint32_t usart_periph, uint32_t obsm)
 355:Drivers/GD32F4xx_standard_peripheral/Source/gd32f4xx_usart.c **** {
 677              		.loc 1 355 1 is_stmt 1 view -0
 678              		.cfi_startproc
 679              		@ args = 0, pretend = 0, frame = 0
 680              		@ frame_needed = 0, uses_anonymous_args = 0
 681              		@ link register save eliminated.
 356:Drivers/GD32F4xx_standard_peripheral/Source/gd32f4xx_usart.c ****     USART_CTL2(usart_periph) &= ~(USART_CTL2_OSB);
 682              		.loc 1 356 5 view .LVU157
 683 0000 4369     		ldr	r3, [r0, #20]
 684              		.loc 1 356 30 is_stmt 0 view .LVU158
 685 0002 23F40063 		bic	r3, r3, #2048
 686 0006 4361     		str	r3, [r0, #20]
 357:Drivers/GD32F4xx_standard_peripheral/Source/gd32f4xx_usart.c ****     USART_CTL2(usart_periph) |= obsm;
 687              		.loc 1 357 5 is_stmt 1 view .LVU159
 688 0008 4369     		ldr	r3, [r0, #20]
 689              		.loc 1 357 30 is_stmt 0 view .LVU160
 690 000a 0B43     		orrs	r3, r3, r1
 691 000c 4361     		str	r3, [r0, #20]
ARM GAS  /tmp/ccWYTPow.s 			page 20


 358:Drivers/GD32F4xx_standard_peripheral/Source/gd32f4xx_usart.c **** }
 692              		.loc 1 358 1 view .LVU161
 693 000e 7047     		bx	lr
 694              		.cfi_endproc
 695              	.LFE128:
 697              		.section	.text.usart_receiver_timeout_enable,"ax",%progbits
 698              		.align	1
 699              		.global	usart_receiver_timeout_enable
 700              		.syntax unified
 701              		.thumb
 702              		.thumb_func
 704              	usart_receiver_timeout_enable:
 705              	.LVL57:
 706              	.LFB129:
 359:Drivers/GD32F4xx_standard_peripheral/Source/gd32f4xx_usart.c **** 
 360:Drivers/GD32F4xx_standard_peripheral/Source/gd32f4xx_usart.c **** /*!
 361:Drivers/GD32F4xx_standard_peripheral/Source/gd32f4xx_usart.c ****     \brief    enable receiver timeout of USART
 362:Drivers/GD32F4xx_standard_peripheral/Source/gd32f4xx_usart.c ****     \param[in]  usart_periph: USARTx(x=0,1,2,5)
 363:Drivers/GD32F4xx_standard_peripheral/Source/gd32f4xx_usart.c ****     \param[out] none
 364:Drivers/GD32F4xx_standard_peripheral/Source/gd32f4xx_usart.c ****     \retval     none
 365:Drivers/GD32F4xx_standard_peripheral/Source/gd32f4xx_usart.c **** */
 366:Drivers/GD32F4xx_standard_peripheral/Source/gd32f4xx_usart.c **** void usart_receiver_timeout_enable(uint32_t usart_periph)
 367:Drivers/GD32F4xx_standard_peripheral/Source/gd32f4xx_usart.c **** {
 707              		.loc 1 367 1 is_stmt 1 view -0
 708              		.cfi_startproc
 709              		@ args = 0, pretend = 0, frame = 0
 710              		@ frame_needed = 0, uses_anonymous_args = 0
 711              		@ link register save eliminated.
 368:Drivers/GD32F4xx_standard_peripheral/Source/gd32f4xx_usart.c ****     USART_CTL3(usart_periph) |= USART_CTL3_RTEN;
 712              		.loc 1 368 5 view .LVU163
 713 0000 D0F88030 		ldr	r3, [r0, #128]
 714              		.loc 1 368 30 is_stmt 0 view .LVU164
 715 0004 43F00103 		orr	r3, r3, #1
 716 0008 C0F88030 		str	r3, [r0, #128]
 369:Drivers/GD32F4xx_standard_peripheral/Source/gd32f4xx_usart.c **** }
 717              		.loc 1 369 1 view .LVU165
 718 000c 7047     		bx	lr
 719              		.cfi_endproc
 720              	.LFE129:
 722              		.section	.text.usart_receiver_timeout_disable,"ax",%progbits
 723              		.align	1
 724              		.global	usart_receiver_timeout_disable
 725              		.syntax unified
 726              		.thumb
 727              		.thumb_func
 729              	usart_receiver_timeout_disable:
 730              	.LVL58:
 731              	.LFB130:
 370:Drivers/GD32F4xx_standard_peripheral/Source/gd32f4xx_usart.c **** 
 371:Drivers/GD32F4xx_standard_peripheral/Source/gd32f4xx_usart.c **** /*!
 372:Drivers/GD32F4xx_standard_peripheral/Source/gd32f4xx_usart.c ****     \brief    disable receiver timeout of USART
 373:Drivers/GD32F4xx_standard_peripheral/Source/gd32f4xx_usart.c ****     \param[in]  usart_periph: USARTx(x=0,1,2,5)
 374:Drivers/GD32F4xx_standard_peripheral/Source/gd32f4xx_usart.c ****     \param[out] none
 375:Drivers/GD32F4xx_standard_peripheral/Source/gd32f4xx_usart.c ****     \retval     none
 376:Drivers/GD32F4xx_standard_peripheral/Source/gd32f4xx_usart.c **** */
 377:Drivers/GD32F4xx_standard_peripheral/Source/gd32f4xx_usart.c **** void usart_receiver_timeout_disable(uint32_t usart_periph)
 378:Drivers/GD32F4xx_standard_peripheral/Source/gd32f4xx_usart.c **** {
ARM GAS  /tmp/ccWYTPow.s 			page 21


 732              		.loc 1 378 1 is_stmt 1 view -0
 733              		.cfi_startproc
 734              		@ args = 0, pretend = 0, frame = 0
 735              		@ frame_needed = 0, uses_anonymous_args = 0
 736              		@ link register save eliminated.
 379:Drivers/GD32F4xx_standard_peripheral/Source/gd32f4xx_usart.c ****     USART_CTL3(usart_periph) &= ~(USART_CTL3_RTEN);
 737              		.loc 1 379 5 view .LVU167
 738 0000 D0F88030 		ldr	r3, [r0, #128]
 739              		.loc 1 379 30 is_stmt 0 view .LVU168
 740 0004 23F00103 		bic	r3, r3, #1
 741 0008 C0F88030 		str	r3, [r0, #128]
 380:Drivers/GD32F4xx_standard_peripheral/Source/gd32f4xx_usart.c **** }
 742              		.loc 1 380 1 view .LVU169
 743 000c 7047     		bx	lr
 744              		.cfi_endproc
 745              	.LFE130:
 747              		.section	.text.usart_receiver_timeout_threshold_config,"ax",%progbits
 748              		.align	1
 749              		.global	usart_receiver_timeout_threshold_config
 750              		.syntax unified
 751              		.thumb
 752              		.thumb_func
 754              	usart_receiver_timeout_threshold_config:
 755              	.LVL59:
 756              	.LFB131:
 381:Drivers/GD32F4xx_standard_peripheral/Source/gd32f4xx_usart.c **** 
 382:Drivers/GD32F4xx_standard_peripheral/Source/gd32f4xx_usart.c **** /*!
 383:Drivers/GD32F4xx_standard_peripheral/Source/gd32f4xx_usart.c ****     \brief    set the receiver timeout threshold of USART
 384:Drivers/GD32F4xx_standard_peripheral/Source/gd32f4xx_usart.c ****     \param[in]  usart_periph: USARTx(x=0,1,2,5)
 385:Drivers/GD32F4xx_standard_peripheral/Source/gd32f4xx_usart.c ****     \param[in]  rtimeout: 0-0x00FFFFFF
 386:Drivers/GD32F4xx_standard_peripheral/Source/gd32f4xx_usart.c ****     \param[out] none
 387:Drivers/GD32F4xx_standard_peripheral/Source/gd32f4xx_usart.c ****     \retval     none
 388:Drivers/GD32F4xx_standard_peripheral/Source/gd32f4xx_usart.c **** */
 389:Drivers/GD32F4xx_standard_peripheral/Source/gd32f4xx_usart.c **** void usart_receiver_timeout_threshold_config(uint32_t usart_periph, uint32_t rtimeout)
 390:Drivers/GD32F4xx_standard_peripheral/Source/gd32f4xx_usart.c **** {
 757              		.loc 1 390 1 is_stmt 1 view -0
 758              		.cfi_startproc
 759              		@ args = 0, pretend = 0, frame = 0
 760              		@ frame_needed = 0, uses_anonymous_args = 0
 761              		@ link register save eliminated.
 391:Drivers/GD32F4xx_standard_peripheral/Source/gd32f4xx_usart.c ****     USART_RT(usart_periph) &= ~(USART_RT_RT);
 762              		.loc 1 391 5 view .LVU171
 763 0000 D0F88430 		ldr	r3, [r0, #132]
 764              		.loc 1 391 28 is_stmt 0 view .LVU172
 765 0004 03F07F43 		and	r3, r3, #-16777216
 766 0008 C0F88430 		str	r3, [r0, #132]
 392:Drivers/GD32F4xx_standard_peripheral/Source/gd32f4xx_usart.c ****     USART_RT(usart_periph) |= rtimeout;
 767              		.loc 1 392 5 is_stmt 1 view .LVU173
 768 000c D0F88430 		ldr	r3, [r0, #132]
 769              		.loc 1 392 28 is_stmt 0 view .LVU174
 770 0010 0B43     		orrs	r3, r3, r1
 771 0012 C0F88430 		str	r3, [r0, #132]
 393:Drivers/GD32F4xx_standard_peripheral/Source/gd32f4xx_usart.c **** }
 772              		.loc 1 393 1 view .LVU175
 773 0016 7047     		bx	lr
 774              		.cfi_endproc
 775              	.LFE131:
ARM GAS  /tmp/ccWYTPow.s 			page 22


 777              		.section	.text.usart_data_transmit,"ax",%progbits
 778              		.align	1
 779              		.global	usart_data_transmit
 780              		.syntax unified
 781              		.thumb
 782              		.thumb_func
 784              	usart_data_transmit:
 785              	.LVL60:
 786              	.LFB132:
 394:Drivers/GD32F4xx_standard_peripheral/Source/gd32f4xx_usart.c **** 
 395:Drivers/GD32F4xx_standard_peripheral/Source/gd32f4xx_usart.c **** /*!
 396:Drivers/GD32F4xx_standard_peripheral/Source/gd32f4xx_usart.c ****     \brief    USART transmit data function
 397:Drivers/GD32F4xx_standard_peripheral/Source/gd32f4xx_usart.c ****     \param[in]  usart_periph: USARTx(x=0,1,2,5)/UARTx(x=3,4,6,7)
 398:Drivers/GD32F4xx_standard_peripheral/Source/gd32f4xx_usart.c ****     \param[in]  data: data of transmission
 399:Drivers/GD32F4xx_standard_peripheral/Source/gd32f4xx_usart.c ****     \param[out] none
 400:Drivers/GD32F4xx_standard_peripheral/Source/gd32f4xx_usart.c ****     \retval     none
 401:Drivers/GD32F4xx_standard_peripheral/Source/gd32f4xx_usart.c **** */
 402:Drivers/GD32F4xx_standard_peripheral/Source/gd32f4xx_usart.c **** void usart_data_transmit(uint32_t usart_periph, uint32_t data)
 403:Drivers/GD32F4xx_standard_peripheral/Source/gd32f4xx_usart.c **** {
 787              		.loc 1 403 1 is_stmt 1 view -0
 788              		.cfi_startproc
 789              		@ args = 0, pretend = 0, frame = 0
 790              		@ frame_needed = 0, uses_anonymous_args = 0
 791              		@ link register save eliminated.
 404:Drivers/GD32F4xx_standard_peripheral/Source/gd32f4xx_usart.c ****     USART_DATA(usart_periph) = ((uint16_t)USART_DATA_DATA & data);
 792              		.loc 1 404 5 view .LVU177
 793              		.loc 1 404 59 is_stmt 0 view .LVU178
 794 0000 C1F30801 		ubfx	r1, r1, #0, #9
 795              	.LVL61:
 796              		.loc 1 404 30 view .LVU179
 797 0004 4160     		str	r1, [r0, #4]
 405:Drivers/GD32F4xx_standard_peripheral/Source/gd32f4xx_usart.c **** }
 798              		.loc 1 405 1 view .LVU180
 799 0006 7047     		bx	lr
 800              		.cfi_endproc
 801              	.LFE132:
 803              		.section	.text.usart_data_receive,"ax",%progbits
 804              		.align	1
 805              		.global	usart_data_receive
 806              		.syntax unified
 807              		.thumb
 808              		.thumb_func
 810              	usart_data_receive:
 811              	.LVL62:
 812              	.LFB133:
 406:Drivers/GD32F4xx_standard_peripheral/Source/gd32f4xx_usart.c **** 
 407:Drivers/GD32F4xx_standard_peripheral/Source/gd32f4xx_usart.c **** /*!
 408:Drivers/GD32F4xx_standard_peripheral/Source/gd32f4xx_usart.c ****     \brief    USART receive data function
 409:Drivers/GD32F4xx_standard_peripheral/Source/gd32f4xx_usart.c ****     \param[in]  usart_periph: USARTx(x=0,1,2,5)/UARTx(x=3,4,6,7)
 410:Drivers/GD32F4xx_standard_peripheral/Source/gd32f4xx_usart.c ****     \param[out] none
 411:Drivers/GD32F4xx_standard_peripheral/Source/gd32f4xx_usart.c ****     \retval     data of received
 412:Drivers/GD32F4xx_standard_peripheral/Source/gd32f4xx_usart.c **** */
 413:Drivers/GD32F4xx_standard_peripheral/Source/gd32f4xx_usart.c **** uint16_t usart_data_receive(uint32_t usart_periph)
 414:Drivers/GD32F4xx_standard_peripheral/Source/gd32f4xx_usart.c **** {
 813              		.loc 1 414 1 is_stmt 1 view -0
 814              		.cfi_startproc
 815              		@ args = 0, pretend = 0, frame = 0
ARM GAS  /tmp/ccWYTPow.s 			page 23


 816              		@ frame_needed = 0, uses_anonymous_args = 0
 817              		@ link register save eliminated.
 415:Drivers/GD32F4xx_standard_peripheral/Source/gd32f4xx_usart.c ****     return (uint16_t)(GET_BITS(USART_DATA(usart_periph), 0U, 8U));
 818              		.loc 1 415 5 view .LVU182
 819              		.loc 1 415 23 is_stmt 0 view .LVU183
 820 0000 4068     		ldr	r0, [r0, #4]
 821              	.LVL63:
 416:Drivers/GD32F4xx_standard_peripheral/Source/gd32f4xx_usart.c **** }
 822              		.loc 1 416 1 view .LVU184
 823 0002 C0F30800 		ubfx	r0, r0, #0, #9
 824 0006 7047     		bx	lr
 825              		.cfi_endproc
 826              	.LFE133:
 828              		.section	.text.usart_address_config,"ax",%progbits
 829              		.align	1
 830              		.global	usart_address_config
 831              		.syntax unified
 832              		.thumb
 833              		.thumb_func
 835              	usart_address_config:
 836              	.LVL64:
 837              	.LFB134:
 417:Drivers/GD32F4xx_standard_peripheral/Source/gd32f4xx_usart.c **** 
 418:Drivers/GD32F4xx_standard_peripheral/Source/gd32f4xx_usart.c **** /*!
 419:Drivers/GD32F4xx_standard_peripheral/Source/gd32f4xx_usart.c ****     \brief    configure the address of the USART in wake up by address match mode
 420:Drivers/GD32F4xx_standard_peripheral/Source/gd32f4xx_usart.c ****     \param[in]  usart_periph: USARTx(x=0,1,2,5)/UARTx(x=3,4,6,7)
 421:Drivers/GD32F4xx_standard_peripheral/Source/gd32f4xx_usart.c ****     \param[in]  addr: address of USART/UART
 422:Drivers/GD32F4xx_standard_peripheral/Source/gd32f4xx_usart.c ****     \param[out] none
 423:Drivers/GD32F4xx_standard_peripheral/Source/gd32f4xx_usart.c ****     \retval     none
 424:Drivers/GD32F4xx_standard_peripheral/Source/gd32f4xx_usart.c **** */
 425:Drivers/GD32F4xx_standard_peripheral/Source/gd32f4xx_usart.c **** void usart_address_config(uint32_t usart_periph, uint8_t addr)
 426:Drivers/GD32F4xx_standard_peripheral/Source/gd32f4xx_usart.c **** {
 838              		.loc 1 426 1 is_stmt 1 view -0
 839              		.cfi_startproc
 840              		@ args = 0, pretend = 0, frame = 0
 841              		@ frame_needed = 0, uses_anonymous_args = 0
 842              		@ link register save eliminated.
 427:Drivers/GD32F4xx_standard_peripheral/Source/gd32f4xx_usart.c ****     USART_CTL1(usart_periph) &= ~(USART_CTL1_ADDR);
 843              		.loc 1 427 5 view .LVU186
 844 0000 0369     		ldr	r3, [r0, #16]
 845              		.loc 1 427 30 is_stmt 0 view .LVU187
 846 0002 23F00F03 		bic	r3, r3, #15
 847 0006 0361     		str	r3, [r0, #16]
 428:Drivers/GD32F4xx_standard_peripheral/Source/gd32f4xx_usart.c ****     USART_CTL1(usart_periph) |= (USART_CTL1_ADDR & addr);
 848              		.loc 1 428 5 is_stmt 1 view .LVU188
 849 0008 0369     		ldr	r3, [r0, #16]
 850              		.loc 1 428 50 is_stmt 0 view .LVU189
 851 000a 01F00F01 		and	r1, r1, #15
 852              	.LVL65:
 853              		.loc 1 428 30 view .LVU190
 854 000e 1943     		orrs	r1, r1, r3
 855 0010 0161     		str	r1, [r0, #16]
 429:Drivers/GD32F4xx_standard_peripheral/Source/gd32f4xx_usart.c **** }
 856              		.loc 1 429 1 view .LVU191
 857 0012 7047     		bx	lr
 858              		.cfi_endproc
 859              	.LFE134:
ARM GAS  /tmp/ccWYTPow.s 			page 24


 861              		.section	.text.usart_mute_mode_enable,"ax",%progbits
 862              		.align	1
 863              		.global	usart_mute_mode_enable
 864              		.syntax unified
 865              		.thumb
 866              		.thumb_func
 868              	usart_mute_mode_enable:
 869              	.LVL66:
 870              	.LFB135:
 430:Drivers/GD32F4xx_standard_peripheral/Source/gd32f4xx_usart.c **** 
 431:Drivers/GD32F4xx_standard_peripheral/Source/gd32f4xx_usart.c **** /*!
 432:Drivers/GD32F4xx_standard_peripheral/Source/gd32f4xx_usart.c ****     \brief    enable mute mode
 433:Drivers/GD32F4xx_standard_peripheral/Source/gd32f4xx_usart.c ****     \param[in]  usart_periph: USARTx(x=0,1,2,5)/UARTx(x=3,4,6,7)
 434:Drivers/GD32F4xx_standard_peripheral/Source/gd32f4xx_usart.c ****     \param[out] none
 435:Drivers/GD32F4xx_standard_peripheral/Source/gd32f4xx_usart.c ****     \retval     none
 436:Drivers/GD32F4xx_standard_peripheral/Source/gd32f4xx_usart.c **** */
 437:Drivers/GD32F4xx_standard_peripheral/Source/gd32f4xx_usart.c **** void usart_mute_mode_enable(uint32_t usart_periph)
 438:Drivers/GD32F4xx_standard_peripheral/Source/gd32f4xx_usart.c **** {
 871              		.loc 1 438 1 is_stmt 1 view -0
 872              		.cfi_startproc
 873              		@ args = 0, pretend = 0, frame = 0
 874              		@ frame_needed = 0, uses_anonymous_args = 0
 875              		@ link register save eliminated.
 439:Drivers/GD32F4xx_standard_peripheral/Source/gd32f4xx_usart.c ****     USART_CTL0(usart_periph) |= USART_CTL0_RWU;
 876              		.loc 1 439 5 view .LVU193
 877 0000 C368     		ldr	r3, [r0, #12]
 878              		.loc 1 439 30 is_stmt 0 view .LVU194
 879 0002 43F00203 		orr	r3, r3, #2
 880 0006 C360     		str	r3, [r0, #12]
 440:Drivers/GD32F4xx_standard_peripheral/Source/gd32f4xx_usart.c **** }
 881              		.loc 1 440 1 view .LVU195
 882 0008 7047     		bx	lr
 883              		.cfi_endproc
 884              	.LFE135:
 886              		.section	.text.usart_mute_mode_disable,"ax",%progbits
 887              		.align	1
 888              		.global	usart_mute_mode_disable
 889              		.syntax unified
 890              		.thumb
 891              		.thumb_func
 893              	usart_mute_mode_disable:
 894              	.LVL67:
 895              	.LFB136:
 441:Drivers/GD32F4xx_standard_peripheral/Source/gd32f4xx_usart.c **** 
 442:Drivers/GD32F4xx_standard_peripheral/Source/gd32f4xx_usart.c **** /*!
 443:Drivers/GD32F4xx_standard_peripheral/Source/gd32f4xx_usart.c ****     \brief    disable mute mode
 444:Drivers/GD32F4xx_standard_peripheral/Source/gd32f4xx_usart.c ****     \param[in]  usart_periph: USARTx(x=0,1,2,5)/UARTx(x=3,4,6,7)
 445:Drivers/GD32F4xx_standard_peripheral/Source/gd32f4xx_usart.c ****     \param[out] none
 446:Drivers/GD32F4xx_standard_peripheral/Source/gd32f4xx_usart.c ****     \retval     none
 447:Drivers/GD32F4xx_standard_peripheral/Source/gd32f4xx_usart.c **** */
 448:Drivers/GD32F4xx_standard_peripheral/Source/gd32f4xx_usart.c **** void usart_mute_mode_disable(uint32_t usart_periph)
 449:Drivers/GD32F4xx_standard_peripheral/Source/gd32f4xx_usart.c **** {
 896              		.loc 1 449 1 is_stmt 1 view -0
 897              		.cfi_startproc
 898              		@ args = 0, pretend = 0, frame = 0
 899              		@ frame_needed = 0, uses_anonymous_args = 0
 900              		@ link register save eliminated.
ARM GAS  /tmp/ccWYTPow.s 			page 25


 450:Drivers/GD32F4xx_standard_peripheral/Source/gd32f4xx_usart.c ****     USART_CTL0(usart_periph) &= ~(USART_CTL0_RWU);
 901              		.loc 1 450 5 view .LVU197
 902 0000 C368     		ldr	r3, [r0, #12]
 903              		.loc 1 450 30 is_stmt 0 view .LVU198
 904 0002 23F00203 		bic	r3, r3, #2
 905 0006 C360     		str	r3, [r0, #12]
 451:Drivers/GD32F4xx_standard_peripheral/Source/gd32f4xx_usart.c **** }
 906              		.loc 1 451 1 view .LVU199
 907 0008 7047     		bx	lr
 908              		.cfi_endproc
 909              	.LFE136:
 911              		.section	.text.usart_mute_mode_wakeup_config,"ax",%progbits
 912              		.align	1
 913              		.global	usart_mute_mode_wakeup_config
 914              		.syntax unified
 915              		.thumb
 916              		.thumb_func
 918              	usart_mute_mode_wakeup_config:
 919              	.LVL68:
 920              	.LFB137:
 452:Drivers/GD32F4xx_standard_peripheral/Source/gd32f4xx_usart.c **** 
 453:Drivers/GD32F4xx_standard_peripheral/Source/gd32f4xx_usart.c **** /*!
 454:Drivers/GD32F4xx_standard_peripheral/Source/gd32f4xx_usart.c ****     \brief    configure wakeup method in mute mode
 455:Drivers/GD32F4xx_standard_peripheral/Source/gd32f4xx_usart.c ****     \param[in]  usart_periph: USARTx(x=0,1,2,5)/UARTx(x=3,4,6,7)
 456:Drivers/GD32F4xx_standard_peripheral/Source/gd32f4xx_usart.c ****     \param[in]  wmehtod: two method be used to enter or exit the mute mode
 457:Drivers/GD32F4xx_standard_peripheral/Source/gd32f4xx_usart.c ****                 only one parameter can be selected which is shown as below:
 458:Drivers/GD32F4xx_standard_peripheral/Source/gd32f4xx_usart.c ****       \arg        USART_WM_IDLE: idle line
 459:Drivers/GD32F4xx_standard_peripheral/Source/gd32f4xx_usart.c ****       \arg        USART_WM_ADDR: address mask
 460:Drivers/GD32F4xx_standard_peripheral/Source/gd32f4xx_usart.c ****     \param[out] none
 461:Drivers/GD32F4xx_standard_peripheral/Source/gd32f4xx_usart.c ****     \retval     none
 462:Drivers/GD32F4xx_standard_peripheral/Source/gd32f4xx_usart.c **** */
 463:Drivers/GD32F4xx_standard_peripheral/Source/gd32f4xx_usart.c **** void usart_mute_mode_wakeup_config(uint32_t usart_periph, uint32_t wmehtod)
 464:Drivers/GD32F4xx_standard_peripheral/Source/gd32f4xx_usart.c **** {
 921              		.loc 1 464 1 is_stmt 1 view -0
 922              		.cfi_startproc
 923              		@ args = 0, pretend = 0, frame = 0
 924              		@ frame_needed = 0, uses_anonymous_args = 0
 925              		@ link register save eliminated.
 465:Drivers/GD32F4xx_standard_peripheral/Source/gd32f4xx_usart.c ****     USART_CTL0(usart_periph) &= ~(USART_CTL0_WM);
 926              		.loc 1 465 5 view .LVU201
 927 0000 C368     		ldr	r3, [r0, #12]
 928              		.loc 1 465 30 is_stmt 0 view .LVU202
 929 0002 23F40063 		bic	r3, r3, #2048
 930 0006 C360     		str	r3, [r0, #12]
 466:Drivers/GD32F4xx_standard_peripheral/Source/gd32f4xx_usart.c ****     USART_CTL0(usart_periph) |= wmehtod;
 931              		.loc 1 466 5 is_stmt 1 view .LVU203
 932 0008 C368     		ldr	r3, [r0, #12]
 933              		.loc 1 466 30 is_stmt 0 view .LVU204
 934 000a 0B43     		orrs	r3, r3, r1
 935 000c C360     		str	r3, [r0, #12]
 467:Drivers/GD32F4xx_standard_peripheral/Source/gd32f4xx_usart.c **** }
 936              		.loc 1 467 1 view .LVU205
 937 000e 7047     		bx	lr
 938              		.cfi_endproc
 939              	.LFE137:
 941              		.section	.text.usart_lin_mode_enable,"ax",%progbits
 942              		.align	1
ARM GAS  /tmp/ccWYTPow.s 			page 26


 943              		.global	usart_lin_mode_enable
 944              		.syntax unified
 945              		.thumb
 946              		.thumb_func
 948              	usart_lin_mode_enable:
 949              	.LVL69:
 950              	.LFB138:
 468:Drivers/GD32F4xx_standard_peripheral/Source/gd32f4xx_usart.c **** 
 469:Drivers/GD32F4xx_standard_peripheral/Source/gd32f4xx_usart.c **** /*!
 470:Drivers/GD32F4xx_standard_peripheral/Source/gd32f4xx_usart.c ****     \brief    enable LIN mode
 471:Drivers/GD32F4xx_standard_peripheral/Source/gd32f4xx_usart.c ****     \param[in]  usart_periph: USARTx(x=0,1,2,5)/UARTx(x=3,4,6,7)
 472:Drivers/GD32F4xx_standard_peripheral/Source/gd32f4xx_usart.c ****     \param[out] none
 473:Drivers/GD32F4xx_standard_peripheral/Source/gd32f4xx_usart.c ****     \retval     none
 474:Drivers/GD32F4xx_standard_peripheral/Source/gd32f4xx_usart.c **** */
 475:Drivers/GD32F4xx_standard_peripheral/Source/gd32f4xx_usart.c **** void usart_lin_mode_enable(uint32_t usart_periph)
 476:Drivers/GD32F4xx_standard_peripheral/Source/gd32f4xx_usart.c **** {
 951              		.loc 1 476 1 is_stmt 1 view -0
 952              		.cfi_startproc
 953              		@ args = 0, pretend = 0, frame = 0
 954              		@ frame_needed = 0, uses_anonymous_args = 0
 955              		@ link register save eliminated.
 477:Drivers/GD32F4xx_standard_peripheral/Source/gd32f4xx_usart.c ****     USART_CTL1(usart_periph) |= USART_CTL1_LMEN;
 956              		.loc 1 477 5 view .LVU207
 957 0000 0369     		ldr	r3, [r0, #16]
 958              		.loc 1 477 30 is_stmt 0 view .LVU208
 959 0002 43F48043 		orr	r3, r3, #16384
 960 0006 0361     		str	r3, [r0, #16]
 478:Drivers/GD32F4xx_standard_peripheral/Source/gd32f4xx_usart.c **** }
 961              		.loc 1 478 1 view .LVU209
 962 0008 7047     		bx	lr
 963              		.cfi_endproc
 964              	.LFE138:
 966              		.section	.text.usart_lin_mode_disable,"ax",%progbits
 967              		.align	1
 968              		.global	usart_lin_mode_disable
 969              		.syntax unified
 970              		.thumb
 971              		.thumb_func
 973              	usart_lin_mode_disable:
 974              	.LVL70:
 975              	.LFB139:
 479:Drivers/GD32F4xx_standard_peripheral/Source/gd32f4xx_usart.c **** 
 480:Drivers/GD32F4xx_standard_peripheral/Source/gd32f4xx_usart.c **** /*!
 481:Drivers/GD32F4xx_standard_peripheral/Source/gd32f4xx_usart.c ****     \brief    disable LIN mode
 482:Drivers/GD32F4xx_standard_peripheral/Source/gd32f4xx_usart.c ****     \param[in]  usart_periph: USARTx(x=0,1,2,5)/UARTx(x=3,4,6,7)
 483:Drivers/GD32F4xx_standard_peripheral/Source/gd32f4xx_usart.c ****     \param[out] none
 484:Drivers/GD32F4xx_standard_peripheral/Source/gd32f4xx_usart.c ****     \retval     none
 485:Drivers/GD32F4xx_standard_peripheral/Source/gd32f4xx_usart.c **** */
 486:Drivers/GD32F4xx_standard_peripheral/Source/gd32f4xx_usart.c **** void usart_lin_mode_disable(uint32_t usart_periph)
 487:Drivers/GD32F4xx_standard_peripheral/Source/gd32f4xx_usart.c **** {
 976              		.loc 1 487 1 is_stmt 1 view -0
 977              		.cfi_startproc
 978              		@ args = 0, pretend = 0, frame = 0
 979              		@ frame_needed = 0, uses_anonymous_args = 0
 980              		@ link register save eliminated.
 488:Drivers/GD32F4xx_standard_peripheral/Source/gd32f4xx_usart.c ****     USART_CTL1(usart_periph) &= ~(USART_CTL1_LMEN);
 981              		.loc 1 488 5 view .LVU211
ARM GAS  /tmp/ccWYTPow.s 			page 27


 982 0000 0369     		ldr	r3, [r0, #16]
 983              		.loc 1 488 30 is_stmt 0 view .LVU212
 984 0002 23F48043 		bic	r3, r3, #16384
 985 0006 0361     		str	r3, [r0, #16]
 489:Drivers/GD32F4xx_standard_peripheral/Source/gd32f4xx_usart.c **** }
 986              		.loc 1 489 1 view .LVU213
 987 0008 7047     		bx	lr
 988              		.cfi_endproc
 989              	.LFE139:
 991              		.section	.text.usart_lin_break_detection_length_config,"ax",%progbits
 992              		.align	1
 993              		.global	usart_lin_break_detection_length_config
 994              		.syntax unified
 995              		.thumb
 996              		.thumb_func
 998              	usart_lin_break_detection_length_config:
 999              	.LVL71:
 1000              	.LFB140:
 490:Drivers/GD32F4xx_standard_peripheral/Source/gd32f4xx_usart.c **** 
 491:Drivers/GD32F4xx_standard_peripheral/Source/gd32f4xx_usart.c **** /*!
 492:Drivers/GD32F4xx_standard_peripheral/Source/gd32f4xx_usart.c ****     \brief    configure lin break frame length
 493:Drivers/GD32F4xx_standard_peripheral/Source/gd32f4xx_usart.c ****     \param[in]  usart_periph: USARTx(x=0,1,2,5)/UARTx(x=3,4,6,7)
 494:Drivers/GD32F4xx_standard_peripheral/Source/gd32f4xx_usart.c ****     \param[in]  lblen: lin break frame length
 495:Drivers/GD32F4xx_standard_peripheral/Source/gd32f4xx_usart.c ****                 only one parameter can be selected which is shown as below:
 496:Drivers/GD32F4xx_standard_peripheral/Source/gd32f4xx_usart.c ****       \arg        USART_LBLEN_10B: 10 bits
 497:Drivers/GD32F4xx_standard_peripheral/Source/gd32f4xx_usart.c ****       \arg        USART_LBLEN_11B: 11 bits
 498:Drivers/GD32F4xx_standard_peripheral/Source/gd32f4xx_usart.c ****     \param[out] none
 499:Drivers/GD32F4xx_standard_peripheral/Source/gd32f4xx_usart.c ****     \retval     none
 500:Drivers/GD32F4xx_standard_peripheral/Source/gd32f4xx_usart.c **** */
 501:Drivers/GD32F4xx_standard_peripheral/Source/gd32f4xx_usart.c **** void usart_lin_break_detection_length_config(uint32_t usart_periph, uint32_t lblen)
 502:Drivers/GD32F4xx_standard_peripheral/Source/gd32f4xx_usart.c **** {
 1001              		.loc 1 502 1 is_stmt 1 view -0
 1002              		.cfi_startproc
 1003              		@ args = 0, pretend = 0, frame = 0
 1004              		@ frame_needed = 0, uses_anonymous_args = 0
 1005              		@ link register save eliminated.
 503:Drivers/GD32F4xx_standard_peripheral/Source/gd32f4xx_usart.c ****     USART_CTL1(usart_periph) &= ~(USART_CTL1_LBLEN);
 1006              		.loc 1 503 5 view .LVU215
 1007 0000 0369     		ldr	r3, [r0, #16]
 1008              		.loc 1 503 30 is_stmt 0 view .LVU216
 1009 0002 23F02003 		bic	r3, r3, #32
 1010 0006 0361     		str	r3, [r0, #16]
 504:Drivers/GD32F4xx_standard_peripheral/Source/gd32f4xx_usart.c ****     USART_CTL1(usart_periph) |= (USART_CTL1_LBLEN & lblen);
 1011              		.loc 1 504 5 is_stmt 1 view .LVU217
 1012 0008 0369     		ldr	r3, [r0, #16]
 1013              		.loc 1 504 51 is_stmt 0 view .LVU218
 1014 000a 01F02001 		and	r1, r1, #32
 1015              	.LVL72:
 1016              		.loc 1 504 30 view .LVU219
 1017 000e 1943     		orrs	r1, r1, r3
 1018 0010 0161     		str	r1, [r0, #16]
 505:Drivers/GD32F4xx_standard_peripheral/Source/gd32f4xx_usart.c **** }
 1019              		.loc 1 505 1 view .LVU220
 1020 0012 7047     		bx	lr
 1021              		.cfi_endproc
 1022              	.LFE140:
 1024              		.section	.text.usart_send_break,"ax",%progbits
ARM GAS  /tmp/ccWYTPow.s 			page 28


 1025              		.align	1
 1026              		.global	usart_send_break
 1027              		.syntax unified
 1028              		.thumb
 1029              		.thumb_func
 1031              	usart_send_break:
 1032              	.LVL73:
 1033              	.LFB141:
 506:Drivers/GD32F4xx_standard_peripheral/Source/gd32f4xx_usart.c **** 
 507:Drivers/GD32F4xx_standard_peripheral/Source/gd32f4xx_usart.c **** /*!
 508:Drivers/GD32F4xx_standard_peripheral/Source/gd32f4xx_usart.c ****     \brief    send break frame
 509:Drivers/GD32F4xx_standard_peripheral/Source/gd32f4xx_usart.c ****     \param[in]  usart_periph: USARTx(x=0,1,2,5)/UARTx(x=3,4,6,7)
 510:Drivers/GD32F4xx_standard_peripheral/Source/gd32f4xx_usart.c ****     \param[out] none
 511:Drivers/GD32F4xx_standard_peripheral/Source/gd32f4xx_usart.c ****     \retval     none
 512:Drivers/GD32F4xx_standard_peripheral/Source/gd32f4xx_usart.c **** */
 513:Drivers/GD32F4xx_standard_peripheral/Source/gd32f4xx_usart.c **** void usart_send_break(uint32_t usart_periph)
 514:Drivers/GD32F4xx_standard_peripheral/Source/gd32f4xx_usart.c **** {
 1034              		.loc 1 514 1 is_stmt 1 view -0
 1035              		.cfi_startproc
 1036              		@ args = 0, pretend = 0, frame = 0
 1037              		@ frame_needed = 0, uses_anonymous_args = 0
 1038              		@ link register save eliminated.
 515:Drivers/GD32F4xx_standard_peripheral/Source/gd32f4xx_usart.c ****     USART_CTL0(usart_periph) |= USART_CTL0_SBKCMD;
 1039              		.loc 1 515 5 view .LVU222
 1040 0000 C368     		ldr	r3, [r0, #12]
 1041              		.loc 1 515 30 is_stmt 0 view .LVU223
 1042 0002 43F00103 		orr	r3, r3, #1
 1043 0006 C360     		str	r3, [r0, #12]
 516:Drivers/GD32F4xx_standard_peripheral/Source/gd32f4xx_usart.c **** }
 1044              		.loc 1 516 1 view .LVU224
 1045 0008 7047     		bx	lr
 1046              		.cfi_endproc
 1047              	.LFE141:
 1049              		.section	.text.usart_halfduplex_enable,"ax",%progbits
 1050              		.align	1
 1051              		.global	usart_halfduplex_enable
 1052              		.syntax unified
 1053              		.thumb
 1054              		.thumb_func
 1056              	usart_halfduplex_enable:
 1057              	.LVL74:
 1058              	.LFB142:
 517:Drivers/GD32F4xx_standard_peripheral/Source/gd32f4xx_usart.c **** 
 518:Drivers/GD32F4xx_standard_peripheral/Source/gd32f4xx_usart.c **** /*!
 519:Drivers/GD32F4xx_standard_peripheral/Source/gd32f4xx_usart.c ****     \brief    enable half duplex mode
 520:Drivers/GD32F4xx_standard_peripheral/Source/gd32f4xx_usart.c ****     \param[in]  usart_periph: USARTx(x=0,1,2,5)/UARTx(x=3,4,6,7)
 521:Drivers/GD32F4xx_standard_peripheral/Source/gd32f4xx_usart.c ****     \param[out] none
 522:Drivers/GD32F4xx_standard_peripheral/Source/gd32f4xx_usart.c ****     \retval     none
 523:Drivers/GD32F4xx_standard_peripheral/Source/gd32f4xx_usart.c **** */
 524:Drivers/GD32F4xx_standard_peripheral/Source/gd32f4xx_usart.c **** void usart_halfduplex_enable(uint32_t usart_periph)
 525:Drivers/GD32F4xx_standard_peripheral/Source/gd32f4xx_usart.c **** {
 1059              		.loc 1 525 1 is_stmt 1 view -0
 1060              		.cfi_startproc
 1061              		@ args = 0, pretend = 0, frame = 0
 1062              		@ frame_needed = 0, uses_anonymous_args = 0
 1063              		@ link register save eliminated.
 526:Drivers/GD32F4xx_standard_peripheral/Source/gd32f4xx_usart.c ****     USART_CTL2(usart_periph) |= USART_CTL2_HDEN;
ARM GAS  /tmp/ccWYTPow.s 			page 29


 1064              		.loc 1 526 5 view .LVU226
 1065 0000 4369     		ldr	r3, [r0, #20]
 1066              		.loc 1 526 30 is_stmt 0 view .LVU227
 1067 0002 43F00803 		orr	r3, r3, #8
 1068 0006 4361     		str	r3, [r0, #20]
 527:Drivers/GD32F4xx_standard_peripheral/Source/gd32f4xx_usart.c **** }
 1069              		.loc 1 527 1 view .LVU228
 1070 0008 7047     		bx	lr
 1071              		.cfi_endproc
 1072              	.LFE142:
 1074              		.section	.text.usart_halfduplex_disable,"ax",%progbits
 1075              		.align	1
 1076              		.global	usart_halfduplex_disable
 1077              		.syntax unified
 1078              		.thumb
 1079              		.thumb_func
 1081              	usart_halfduplex_disable:
 1082              	.LVL75:
 1083              	.LFB143:
 528:Drivers/GD32F4xx_standard_peripheral/Source/gd32f4xx_usart.c **** 
 529:Drivers/GD32F4xx_standard_peripheral/Source/gd32f4xx_usart.c **** /*!
 530:Drivers/GD32F4xx_standard_peripheral/Source/gd32f4xx_usart.c ****     \brief    disable half duplex mode
 531:Drivers/GD32F4xx_standard_peripheral/Source/gd32f4xx_usart.c ****     \param[in]  usart_periph: USARTx(x=0,1,2,5)/UARTx(x=3,4,6,7)
 532:Drivers/GD32F4xx_standard_peripheral/Source/gd32f4xx_usart.c ****     \param[out] none
 533:Drivers/GD32F4xx_standard_peripheral/Source/gd32f4xx_usart.c ****     \retval     none
 534:Drivers/GD32F4xx_standard_peripheral/Source/gd32f4xx_usart.c **** */
 535:Drivers/GD32F4xx_standard_peripheral/Source/gd32f4xx_usart.c **** void usart_halfduplex_disable(uint32_t usart_periph)
 536:Drivers/GD32F4xx_standard_peripheral/Source/gd32f4xx_usart.c **** {
 1084              		.loc 1 536 1 is_stmt 1 view -0
 1085              		.cfi_startproc
 1086              		@ args = 0, pretend = 0, frame = 0
 1087              		@ frame_needed = 0, uses_anonymous_args = 0
 1088              		@ link register save eliminated.
 537:Drivers/GD32F4xx_standard_peripheral/Source/gd32f4xx_usart.c ****     USART_CTL2(usart_periph) &= ~(USART_CTL2_HDEN);
 1089              		.loc 1 537 5 view .LVU230
 1090 0000 4369     		ldr	r3, [r0, #20]
 1091              		.loc 1 537 30 is_stmt 0 view .LVU231
 1092 0002 23F00803 		bic	r3, r3, #8
 1093 0006 4361     		str	r3, [r0, #20]
 538:Drivers/GD32F4xx_standard_peripheral/Source/gd32f4xx_usart.c **** }
 1094              		.loc 1 538 1 view .LVU232
 1095 0008 7047     		bx	lr
 1096              		.cfi_endproc
 1097              	.LFE143:
 1099              		.section	.text.usart_synchronous_clock_enable,"ax",%progbits
 1100              		.align	1
 1101              		.global	usart_synchronous_clock_enable
 1102              		.syntax unified
 1103              		.thumb
 1104              		.thumb_func
 1106              	usart_synchronous_clock_enable:
 1107              	.LVL76:
 1108              	.LFB144:
 539:Drivers/GD32F4xx_standard_peripheral/Source/gd32f4xx_usart.c **** 
 540:Drivers/GD32F4xx_standard_peripheral/Source/gd32f4xx_usart.c **** /*!
 541:Drivers/GD32F4xx_standard_peripheral/Source/gd32f4xx_usart.c ****     \brief    enable CK pin in synchronous mode
 542:Drivers/GD32F4xx_standard_peripheral/Source/gd32f4xx_usart.c ****     \param[in]  usart_periph: USARTx(x=0,1,2,5)
ARM GAS  /tmp/ccWYTPow.s 			page 30


 543:Drivers/GD32F4xx_standard_peripheral/Source/gd32f4xx_usart.c ****     \param[out] none
 544:Drivers/GD32F4xx_standard_peripheral/Source/gd32f4xx_usart.c ****     \retval     none
 545:Drivers/GD32F4xx_standard_peripheral/Source/gd32f4xx_usart.c **** */
 546:Drivers/GD32F4xx_standard_peripheral/Source/gd32f4xx_usart.c **** void usart_synchronous_clock_enable(uint32_t usart_periph)
 547:Drivers/GD32F4xx_standard_peripheral/Source/gd32f4xx_usart.c **** {
 1109              		.loc 1 547 1 is_stmt 1 view -0
 1110              		.cfi_startproc
 1111              		@ args = 0, pretend = 0, frame = 0
 1112              		@ frame_needed = 0, uses_anonymous_args = 0
 1113              		@ link register save eliminated.
 548:Drivers/GD32F4xx_standard_peripheral/Source/gd32f4xx_usart.c ****     USART_CTL1(usart_periph) |= USART_CTL1_CKEN;
 1114              		.loc 1 548 5 view .LVU234
 1115 0000 0369     		ldr	r3, [r0, #16]
 1116              		.loc 1 548 30 is_stmt 0 view .LVU235
 1117 0002 43F40063 		orr	r3, r3, #2048
 1118 0006 0361     		str	r3, [r0, #16]
 549:Drivers/GD32F4xx_standard_peripheral/Source/gd32f4xx_usart.c **** }
 1119              		.loc 1 549 1 view .LVU236
 1120 0008 7047     		bx	lr
 1121              		.cfi_endproc
 1122              	.LFE144:
 1124              		.section	.text.usart_synchronous_clock_disable,"ax",%progbits
 1125              		.align	1
 1126              		.global	usart_synchronous_clock_disable
 1127              		.syntax unified
 1128              		.thumb
 1129              		.thumb_func
 1131              	usart_synchronous_clock_disable:
 1132              	.LVL77:
 1133              	.LFB145:
 550:Drivers/GD32F4xx_standard_peripheral/Source/gd32f4xx_usart.c **** 
 551:Drivers/GD32F4xx_standard_peripheral/Source/gd32f4xx_usart.c **** /*!
 552:Drivers/GD32F4xx_standard_peripheral/Source/gd32f4xx_usart.c ****     \brief    disable CK pin in synchronous mode
 553:Drivers/GD32F4xx_standard_peripheral/Source/gd32f4xx_usart.c ****     \param[in]  usart_periph: USARTx(x=0,1,2,5)
 554:Drivers/GD32F4xx_standard_peripheral/Source/gd32f4xx_usart.c ****     \param[out] none
 555:Drivers/GD32F4xx_standard_peripheral/Source/gd32f4xx_usart.c ****     \retval     none
 556:Drivers/GD32F4xx_standard_peripheral/Source/gd32f4xx_usart.c **** */
 557:Drivers/GD32F4xx_standard_peripheral/Source/gd32f4xx_usart.c **** void usart_synchronous_clock_disable(uint32_t usart_periph)
 558:Drivers/GD32F4xx_standard_peripheral/Source/gd32f4xx_usart.c **** {
 1134              		.loc 1 558 1 is_stmt 1 view -0
 1135              		.cfi_startproc
 1136              		@ args = 0, pretend = 0, frame = 0
 1137              		@ frame_needed = 0, uses_anonymous_args = 0
 1138              		@ link register save eliminated.
 559:Drivers/GD32F4xx_standard_peripheral/Source/gd32f4xx_usart.c ****     USART_CTL1(usart_periph) &= ~(USART_CTL1_CKEN);
 1139              		.loc 1 559 5 view .LVU238
 1140 0000 0369     		ldr	r3, [r0, #16]
 1141              		.loc 1 559 30 is_stmt 0 view .LVU239
 1142 0002 23F40063 		bic	r3, r3, #2048
 1143 0006 0361     		str	r3, [r0, #16]
 560:Drivers/GD32F4xx_standard_peripheral/Source/gd32f4xx_usart.c **** }
 1144              		.loc 1 560 1 view .LVU240
 1145 0008 7047     		bx	lr
 1146              		.cfi_endproc
 1147              	.LFE145:
 1149              		.section	.text.usart_synchronous_clock_config,"ax",%progbits
 1150              		.align	1
ARM GAS  /tmp/ccWYTPow.s 			page 31


 1151              		.global	usart_synchronous_clock_config
 1152              		.syntax unified
 1153              		.thumb
 1154              		.thumb_func
 1156              	usart_synchronous_clock_config:
 1157              	.LVL78:
 1158              	.LFB146:
 561:Drivers/GD32F4xx_standard_peripheral/Source/gd32f4xx_usart.c **** 
 562:Drivers/GD32F4xx_standard_peripheral/Source/gd32f4xx_usart.c **** /*!
 563:Drivers/GD32F4xx_standard_peripheral/Source/gd32f4xx_usart.c ****     \brief    configure USART synchronous mode parameters
 564:Drivers/GD32F4xx_standard_peripheral/Source/gd32f4xx_usart.c ****     \param[in]  usart_periph: USARTx(x=0,1,2,5)
 565:Drivers/GD32F4xx_standard_peripheral/Source/gd32f4xx_usart.c ****     \param[in]  clen: CK length
 566:Drivers/GD32F4xx_standard_peripheral/Source/gd32f4xx_usart.c ****                 only one parameter can be selected which is shown as below:
 567:Drivers/GD32F4xx_standard_peripheral/Source/gd32f4xx_usart.c ****       \arg        USART_CLEN_NONE: there are 7 CK pulses for an 8 bit frame and 8 CK pulses for a 9
 568:Drivers/GD32F4xx_standard_peripheral/Source/gd32f4xx_usart.c ****       \arg        USART_CLEN_EN:   there are 8 CK pulses for an 8 bit frame and 9 CK pulses for a 9
 569:Drivers/GD32F4xx_standard_peripheral/Source/gd32f4xx_usart.c ****     \param[in]  cph: clock phase
 570:Drivers/GD32F4xx_standard_peripheral/Source/gd32f4xx_usart.c ****                 only one parameter can be selected which is shown as below:
 571:Drivers/GD32F4xx_standard_peripheral/Source/gd32f4xx_usart.c ****       \arg        USART_CPH_1CK: first clock transition is the first data capture edge
 572:Drivers/GD32F4xx_standard_peripheral/Source/gd32f4xx_usart.c ****       \arg        USART_CPH_2CK: second clock transition is the first data capture edge
 573:Drivers/GD32F4xx_standard_peripheral/Source/gd32f4xx_usart.c ****     \param[in]  cpl: clock polarity
 574:Drivers/GD32F4xx_standard_peripheral/Source/gd32f4xx_usart.c ****                 only one parameter can be selected which is shown as below:
 575:Drivers/GD32F4xx_standard_peripheral/Source/gd32f4xx_usart.c ****       \arg        USART_CPL_LOW:  steady low value on CK pin
 576:Drivers/GD32F4xx_standard_peripheral/Source/gd32f4xx_usart.c ****       \arg        USART_CPL_HIGH: steady high value on CK pin
 577:Drivers/GD32F4xx_standard_peripheral/Source/gd32f4xx_usart.c ****     \param[out] none
 578:Drivers/GD32F4xx_standard_peripheral/Source/gd32f4xx_usart.c ****     \retval     none
 579:Drivers/GD32F4xx_standard_peripheral/Source/gd32f4xx_usart.c **** */
 580:Drivers/GD32F4xx_standard_peripheral/Source/gd32f4xx_usart.c **** void usart_synchronous_clock_config(uint32_t usart_periph, uint32_t clen, uint32_t cph, uint32_t cp
 581:Drivers/GD32F4xx_standard_peripheral/Source/gd32f4xx_usart.c **** {
 1159              		.loc 1 581 1 is_stmt 1 view -0
 1160              		.cfi_startproc
 1161              		@ args = 0, pretend = 0, frame = 0
 1162              		@ frame_needed = 0, uses_anonymous_args = 0
 582:Drivers/GD32F4xx_standard_peripheral/Source/gd32f4xx_usart.c ****     uint32_t ctl = 0U;
 1163              		.loc 1 582 5 view .LVU242
 583:Drivers/GD32F4xx_standard_peripheral/Source/gd32f4xx_usart.c **** 
 584:Drivers/GD32F4xx_standard_peripheral/Source/gd32f4xx_usart.c ****     /* read USART_CTL1 register */
 585:Drivers/GD32F4xx_standard_peripheral/Source/gd32f4xx_usart.c ****     ctl = USART_CTL1(usart_periph);
 1164              		.loc 1 585 5 view .LVU243
 581:Drivers/GD32F4xx_standard_peripheral/Source/gd32f4xx_usart.c ****     uint32_t ctl = 0U;
 1165              		.loc 1 581 1 is_stmt 0 view .LVU244
 1166 0000 10B5     		push	{r4, lr}
 1167              	.LCFI4:
 1168              		.cfi_def_cfa_offset 8
 1169              		.cfi_offset 4, -8
 1170              		.cfi_offset 14, -4
 586:Drivers/GD32F4xx_standard_peripheral/Source/gd32f4xx_usart.c ****     ctl &= ~(USART_CTL1_CLEN | USART_CTL1_CPH | USART_CTL1_CPL);
 587:Drivers/GD32F4xx_standard_peripheral/Source/gd32f4xx_usart.c ****     /* set CK length, CK phase, CK polarity */
 588:Drivers/GD32F4xx_standard_peripheral/Source/gd32f4xx_usart.c ****     ctl |= (USART_CTL1_CLEN & clen) | (USART_CTL1_CPH & cph) | (USART_CTL1_CPL & cpl);
 1171              		.loc 1 588 55 view .LVU245
 1172 0002 02F40072 		and	r2, r2, #512
 1173              	.LVL79:
 585:Drivers/GD32F4xx_standard_peripheral/Source/gd32f4xx_usart.c ****     ctl &= ~(USART_CTL1_CLEN | USART_CTL1_CPH | USART_CTL1_CPL);
 1174              		.loc 1 585 9 view .LVU246
 1175 0006 0469     		ldr	r4, [r0, #16]
 1176              	.LVL80:
 586:Drivers/GD32F4xx_standard_peripheral/Source/gd32f4xx_usart.c ****     ctl &= ~(USART_CTL1_CLEN | USART_CTL1_CPH | USART_CTL1_CPL);
 1177              		.loc 1 586 5 is_stmt 1 view .LVU247
ARM GAS  /tmp/ccWYTPow.s 			page 32


 1178              		.loc 1 588 80 is_stmt 0 view .LVU248
 1179 0008 03F48063 		and	r3, r3, #1024
 1180              	.LVL81:
 1181              		.loc 1 588 62 view .LVU249
 1182 000c 1A43     		orrs	r2, r2, r3
 1183              		.loc 1 588 29 view .LVU250
 1184 000e 01F48071 		and	r1, r1, #256
 1185              	.LVL82:
 586:Drivers/GD32F4xx_standard_peripheral/Source/gd32f4xx_usart.c ****     ctl &= ~(USART_CTL1_CLEN | USART_CTL1_CPH | USART_CTL1_CPL);
 1186              		.loc 1 586 9 view .LVU251
 1187 0012 24F4E064 		bic	r4, r4, #1792
 1188              	.LVL83:
 1189              		.loc 1 588 5 is_stmt 1 view .LVU252
 1190              		.loc 1 588 62 is_stmt 0 view .LVU253
 1191 0016 0A43     		orrs	r2, r2, r1
 1192              		.loc 1 588 9 view .LVU254
 1193 0018 2243     		orrs	r2, r2, r4
 1194              	.LVL84:
 589:Drivers/GD32F4xx_standard_peripheral/Source/gd32f4xx_usart.c **** 
 590:Drivers/GD32F4xx_standard_peripheral/Source/gd32f4xx_usart.c ****     USART_CTL1(usart_periph) = ctl;
 1195              		.loc 1 590 5 is_stmt 1 view .LVU255
 1196              		.loc 1 590 30 is_stmt 0 view .LVU256
 1197 001a 0261     		str	r2, [r0, #16]
 591:Drivers/GD32F4xx_standard_peripheral/Source/gd32f4xx_usart.c **** }
 1198              		.loc 1 591 1 view .LVU257
 1199 001c 10BD     		pop	{r4, pc}
 1200              		.cfi_endproc
 1201              	.LFE146:
 1203              		.section	.text.usart_guard_time_config,"ax",%progbits
 1204              		.align	1
 1205              		.global	usart_guard_time_config
 1206              		.syntax unified
 1207              		.thumb
 1208              		.thumb_func
 1210              	usart_guard_time_config:
 1211              	.LVL85:
 1212              	.LFB147:
 592:Drivers/GD32F4xx_standard_peripheral/Source/gd32f4xx_usart.c **** 
 593:Drivers/GD32F4xx_standard_peripheral/Source/gd32f4xx_usart.c **** /*!
 594:Drivers/GD32F4xx_standard_peripheral/Source/gd32f4xx_usart.c ****     \brief    configure guard time value in smartcard mode
 595:Drivers/GD32F4xx_standard_peripheral/Source/gd32f4xx_usart.c ****     \param[in]  usart_periph: USARTx(x=0,1,2,5)
 596:Drivers/GD32F4xx_standard_peripheral/Source/gd32f4xx_usart.c ****     \param[in]  guat: guard time value, 0-0xFF
 597:Drivers/GD32F4xx_standard_peripheral/Source/gd32f4xx_usart.c ****     \param[out] none
 598:Drivers/GD32F4xx_standard_peripheral/Source/gd32f4xx_usart.c ****     \retval     none
 599:Drivers/GD32F4xx_standard_peripheral/Source/gd32f4xx_usart.c **** */
 600:Drivers/GD32F4xx_standard_peripheral/Source/gd32f4xx_usart.c **** void usart_guard_time_config(uint32_t usart_periph, uint32_t guat)
 601:Drivers/GD32F4xx_standard_peripheral/Source/gd32f4xx_usart.c **** {
 1213              		.loc 1 601 1 is_stmt 1 view -0
 1214              		.cfi_startproc
 1215              		@ args = 0, pretend = 0, frame = 0
 1216              		@ frame_needed = 0, uses_anonymous_args = 0
 1217              		@ link register save eliminated.
 602:Drivers/GD32F4xx_standard_peripheral/Source/gd32f4xx_usart.c ****     USART_GP(usart_periph) &= ~(USART_GP_GUAT);
 1218              		.loc 1 602 5 view .LVU259
 1219 0000 8369     		ldr	r3, [r0, #24]
 1220              		.loc 1 602 28 is_stmt 0 view .LVU260
 1221 0002 23F47F43 		bic	r3, r3, #65280
ARM GAS  /tmp/ccWYTPow.s 			page 33


 1222 0006 8361     		str	r3, [r0, #24]
 603:Drivers/GD32F4xx_standard_peripheral/Source/gd32f4xx_usart.c ****     USART_GP(usart_periph) |= (USART_GP_GUAT & ((guat) << GP_GUAT_OFFSET));
 1223              		.loc 1 603 5 is_stmt 1 view .LVU261
 1224 0008 8369     		ldr	r3, [r0, #24]
 1225              		.loc 1 603 56 is_stmt 0 view .LVU262
 1226 000a 0902     		lsls	r1, r1, #8
 1227              	.LVL86:
 1228              		.loc 1 603 46 view .LVU263
 1229 000c 89B2     		uxth	r1, r1
 1230              		.loc 1 603 28 view .LVU264
 1231 000e 1943     		orrs	r1, r1, r3
 1232 0010 8161     		str	r1, [r0, #24]
 604:Drivers/GD32F4xx_standard_peripheral/Source/gd32f4xx_usart.c **** }
 1233              		.loc 1 604 1 view .LVU265
 1234 0012 7047     		bx	lr
 1235              		.cfi_endproc
 1236              	.LFE147:
 1238              		.section	.text.usart_smartcard_mode_enable,"ax",%progbits
 1239              		.align	1
 1240              		.global	usart_smartcard_mode_enable
 1241              		.syntax unified
 1242              		.thumb
 1243              		.thumb_func
 1245              	usart_smartcard_mode_enable:
 1246              	.LVL87:
 1247              	.LFB148:
 605:Drivers/GD32F4xx_standard_peripheral/Source/gd32f4xx_usart.c **** 
 606:Drivers/GD32F4xx_standard_peripheral/Source/gd32f4xx_usart.c **** /*!
 607:Drivers/GD32F4xx_standard_peripheral/Source/gd32f4xx_usart.c ****     \brief    enable smartcard mode
 608:Drivers/GD32F4xx_standard_peripheral/Source/gd32f4xx_usart.c ****     \param[in]  usart_periph: USARTx(x=0,1,2,5)
 609:Drivers/GD32F4xx_standard_peripheral/Source/gd32f4xx_usart.c ****     \param[out] none
 610:Drivers/GD32F4xx_standard_peripheral/Source/gd32f4xx_usart.c ****     \retval     none
 611:Drivers/GD32F4xx_standard_peripheral/Source/gd32f4xx_usart.c **** */
 612:Drivers/GD32F4xx_standard_peripheral/Source/gd32f4xx_usart.c **** void usart_smartcard_mode_enable(uint32_t usart_periph)
 613:Drivers/GD32F4xx_standard_peripheral/Source/gd32f4xx_usart.c **** {
 1248              		.loc 1 613 1 is_stmt 1 view -0
 1249              		.cfi_startproc
 1250              		@ args = 0, pretend = 0, frame = 0
 1251              		@ frame_needed = 0, uses_anonymous_args = 0
 1252              		@ link register save eliminated.
 614:Drivers/GD32F4xx_standard_peripheral/Source/gd32f4xx_usart.c ****     USART_CTL2(usart_periph) |= USART_CTL2_SCEN;
 1253              		.loc 1 614 5 view .LVU267
 1254 0000 4369     		ldr	r3, [r0, #20]
 1255              		.loc 1 614 30 is_stmt 0 view .LVU268
 1256 0002 43F02003 		orr	r3, r3, #32
 1257 0006 4361     		str	r3, [r0, #20]
 615:Drivers/GD32F4xx_standard_peripheral/Source/gd32f4xx_usart.c **** }
 1258              		.loc 1 615 1 view .LVU269
 1259 0008 7047     		bx	lr
 1260              		.cfi_endproc
 1261              	.LFE148:
 1263              		.section	.text.usart_smartcard_mode_disable,"ax",%progbits
 1264              		.align	1
 1265              		.global	usart_smartcard_mode_disable
 1266              		.syntax unified
 1267              		.thumb
 1268              		.thumb_func
ARM GAS  /tmp/ccWYTPow.s 			page 34


 1270              	usart_smartcard_mode_disable:
 1271              	.LVL88:
 1272              	.LFB149:
 616:Drivers/GD32F4xx_standard_peripheral/Source/gd32f4xx_usart.c **** 
 617:Drivers/GD32F4xx_standard_peripheral/Source/gd32f4xx_usart.c **** /*!
 618:Drivers/GD32F4xx_standard_peripheral/Source/gd32f4xx_usart.c ****     \brief    disable smartcard mode
 619:Drivers/GD32F4xx_standard_peripheral/Source/gd32f4xx_usart.c ****     \param[in]  usart_periph: USARTx(x=0,1,2,5)
 620:Drivers/GD32F4xx_standard_peripheral/Source/gd32f4xx_usart.c ****     \param[out] none
 621:Drivers/GD32F4xx_standard_peripheral/Source/gd32f4xx_usart.c ****     \retval     none
 622:Drivers/GD32F4xx_standard_peripheral/Source/gd32f4xx_usart.c **** */
 623:Drivers/GD32F4xx_standard_peripheral/Source/gd32f4xx_usart.c **** void usart_smartcard_mode_disable(uint32_t usart_periph)
 624:Drivers/GD32F4xx_standard_peripheral/Source/gd32f4xx_usart.c **** {
 1273              		.loc 1 624 1 is_stmt 1 view -0
 1274              		.cfi_startproc
 1275              		@ args = 0, pretend = 0, frame = 0
 1276              		@ frame_needed = 0, uses_anonymous_args = 0
 1277              		@ link register save eliminated.
 625:Drivers/GD32F4xx_standard_peripheral/Source/gd32f4xx_usart.c ****     USART_CTL2(usart_periph) &= ~(USART_CTL2_SCEN);
 1278              		.loc 1 625 5 view .LVU271
 1279 0000 4369     		ldr	r3, [r0, #20]
 1280              		.loc 1 625 30 is_stmt 0 view .LVU272
 1281 0002 23F02003 		bic	r3, r3, #32
 1282 0006 4361     		str	r3, [r0, #20]
 626:Drivers/GD32F4xx_standard_peripheral/Source/gd32f4xx_usart.c **** }
 1283              		.loc 1 626 1 view .LVU273
 1284 0008 7047     		bx	lr
 1285              		.cfi_endproc
 1286              	.LFE149:
 1288              		.section	.text.usart_smartcard_mode_nack_enable,"ax",%progbits
 1289              		.align	1
 1290              		.global	usart_smartcard_mode_nack_enable
 1291              		.syntax unified
 1292              		.thumb
 1293              		.thumb_func
 1295              	usart_smartcard_mode_nack_enable:
 1296              	.LVL89:
 1297              	.LFB150:
 627:Drivers/GD32F4xx_standard_peripheral/Source/gd32f4xx_usart.c **** 
 628:Drivers/GD32F4xx_standard_peripheral/Source/gd32f4xx_usart.c **** /*!
 629:Drivers/GD32F4xx_standard_peripheral/Source/gd32f4xx_usart.c ****     \brief    enable NACK in smartcard mode
 630:Drivers/GD32F4xx_standard_peripheral/Source/gd32f4xx_usart.c ****     \param[in]  usart_periph: USARTx(x=0,1,2,5)
 631:Drivers/GD32F4xx_standard_peripheral/Source/gd32f4xx_usart.c ****     \param[out] none
 632:Drivers/GD32F4xx_standard_peripheral/Source/gd32f4xx_usart.c ****     \retval     none
 633:Drivers/GD32F4xx_standard_peripheral/Source/gd32f4xx_usart.c **** */
 634:Drivers/GD32F4xx_standard_peripheral/Source/gd32f4xx_usart.c **** void usart_smartcard_mode_nack_enable(uint32_t usart_periph)
 635:Drivers/GD32F4xx_standard_peripheral/Source/gd32f4xx_usart.c **** {
 1298              		.loc 1 635 1 is_stmt 1 view -0
 1299              		.cfi_startproc
 1300              		@ args = 0, pretend = 0, frame = 0
 1301              		@ frame_needed = 0, uses_anonymous_args = 0
 1302              		@ link register save eliminated.
 636:Drivers/GD32F4xx_standard_peripheral/Source/gd32f4xx_usart.c ****     USART_CTL2(usart_periph) |= USART_CTL2_NKEN;
 1303              		.loc 1 636 5 view .LVU275
 1304 0000 4369     		ldr	r3, [r0, #20]
 1305              		.loc 1 636 30 is_stmt 0 view .LVU276
 1306 0002 43F01003 		orr	r3, r3, #16
 1307 0006 4361     		str	r3, [r0, #20]
ARM GAS  /tmp/ccWYTPow.s 			page 35


 637:Drivers/GD32F4xx_standard_peripheral/Source/gd32f4xx_usart.c **** }
 1308              		.loc 1 637 1 view .LVU277
 1309 0008 7047     		bx	lr
 1310              		.cfi_endproc
 1311              	.LFE150:
 1313              		.section	.text.usart_smartcard_mode_nack_disable,"ax",%progbits
 1314              		.align	1
 1315              		.global	usart_smartcard_mode_nack_disable
 1316              		.syntax unified
 1317              		.thumb
 1318              		.thumb_func
 1320              	usart_smartcard_mode_nack_disable:
 1321              	.LVL90:
 1322              	.LFB151:
 638:Drivers/GD32F4xx_standard_peripheral/Source/gd32f4xx_usart.c **** 
 639:Drivers/GD32F4xx_standard_peripheral/Source/gd32f4xx_usart.c **** /*!
 640:Drivers/GD32F4xx_standard_peripheral/Source/gd32f4xx_usart.c ****     \brief    disable NACK in smartcard mode
 641:Drivers/GD32F4xx_standard_peripheral/Source/gd32f4xx_usart.c ****     \param[in]  usart_periph: USARTx(x=0,1,2,5)
 642:Drivers/GD32F4xx_standard_peripheral/Source/gd32f4xx_usart.c ****     \param[out] none
 643:Drivers/GD32F4xx_standard_peripheral/Source/gd32f4xx_usart.c ****     \retval     none
 644:Drivers/GD32F4xx_standard_peripheral/Source/gd32f4xx_usart.c **** */
 645:Drivers/GD32F4xx_standard_peripheral/Source/gd32f4xx_usart.c **** void usart_smartcard_mode_nack_disable(uint32_t usart_periph)
 646:Drivers/GD32F4xx_standard_peripheral/Source/gd32f4xx_usart.c **** {
 1323              		.loc 1 646 1 is_stmt 1 view -0
 1324              		.cfi_startproc
 1325              		@ args = 0, pretend = 0, frame = 0
 1326              		@ frame_needed = 0, uses_anonymous_args = 0
 1327              		@ link register save eliminated.
 647:Drivers/GD32F4xx_standard_peripheral/Source/gd32f4xx_usart.c ****     USART_CTL2(usart_periph) &= ~(USART_CTL2_NKEN);
 1328              		.loc 1 647 5 view .LVU279
 1329 0000 4369     		ldr	r3, [r0, #20]
 1330              		.loc 1 647 30 is_stmt 0 view .LVU280
 1331 0002 23F01003 		bic	r3, r3, #16
 1332 0006 4361     		str	r3, [r0, #20]
 648:Drivers/GD32F4xx_standard_peripheral/Source/gd32f4xx_usart.c **** }
 1333              		.loc 1 648 1 view .LVU281
 1334 0008 7047     		bx	lr
 1335              		.cfi_endproc
 1336              	.LFE151:
 1338              		.section	.text.usart_smartcard_autoretry_config,"ax",%progbits
 1339              		.align	1
 1340              		.global	usart_smartcard_autoretry_config
 1341              		.syntax unified
 1342              		.thumb
 1343              		.thumb_func
 1345              	usart_smartcard_autoretry_config:
 1346              	.LVL91:
 1347              	.LFB152:
 649:Drivers/GD32F4xx_standard_peripheral/Source/gd32f4xx_usart.c **** 
 650:Drivers/GD32F4xx_standard_peripheral/Source/gd32f4xx_usart.c **** /*!
 651:Drivers/GD32F4xx_standard_peripheral/Source/gd32f4xx_usart.c ****     \brief    configure smartcard auto-retry number
 652:Drivers/GD32F4xx_standard_peripheral/Source/gd32f4xx_usart.c ****     \param[in]  usart_periph: USARTx(x=0,1,2,5)
 653:Drivers/GD32F4xx_standard_peripheral/Source/gd32f4xx_usart.c ****     \param[in]  scrtnum: smartcard auto-retry number
 654:Drivers/GD32F4xx_standard_peripheral/Source/gd32f4xx_usart.c ****     \param[out] none
 655:Drivers/GD32F4xx_standard_peripheral/Source/gd32f4xx_usart.c ****     \retval     none
 656:Drivers/GD32F4xx_standard_peripheral/Source/gd32f4xx_usart.c **** */
 657:Drivers/GD32F4xx_standard_peripheral/Source/gd32f4xx_usart.c **** void usart_smartcard_autoretry_config(uint32_t usart_periph, uint32_t scrtnum)
ARM GAS  /tmp/ccWYTPow.s 			page 36


 658:Drivers/GD32F4xx_standard_peripheral/Source/gd32f4xx_usart.c **** {
 1348              		.loc 1 658 1 is_stmt 1 view -0
 1349              		.cfi_startproc
 1350              		@ args = 0, pretend = 0, frame = 0
 1351              		@ frame_needed = 0, uses_anonymous_args = 0
 1352              		@ link register save eliminated.
 659:Drivers/GD32F4xx_standard_peripheral/Source/gd32f4xx_usart.c ****     USART_CTL3(usart_periph) &= ~(USART_CTL3_SCRTNUM);
 1353              		.loc 1 659 5 view .LVU283
 1354 0000 D0F88030 		ldr	r3, [r0, #128]
 1355              		.loc 1 659 30 is_stmt 0 view .LVU284
 1356 0004 23F00E03 		bic	r3, r3, #14
 1357 0008 C0F88030 		str	r3, [r0, #128]
 660:Drivers/GD32F4xx_standard_peripheral/Source/gd32f4xx_usart.c ****     USART_CTL3(usart_periph) |= (USART_CTL3_SCRTNUM & ((scrtnum) << CTL3_SCRTNUM_OFFSET));
 1358              		.loc 1 660 5 is_stmt 1 view .LVU285
 1359 000c D0F88030 		ldr	r3, [r0, #128]
 1360              		.loc 1 660 66 is_stmt 0 view .LVU286
 1361 0010 4900     		lsls	r1, r1, #1
 1362              	.LVL92:
 1363              		.loc 1 660 53 view .LVU287
 1364 0012 01F00E01 		and	r1, r1, #14
 1365              		.loc 1 660 30 view .LVU288
 1366 0016 1943     		orrs	r1, r1, r3
 1367 0018 C0F88010 		str	r1, [r0, #128]
 661:Drivers/GD32F4xx_standard_peripheral/Source/gd32f4xx_usart.c **** }
 1368              		.loc 1 661 1 view .LVU289
 1369 001c 7047     		bx	lr
 1370              		.cfi_endproc
 1371              	.LFE152:
 1373              		.section	.text.usart_block_length_config,"ax",%progbits
 1374              		.align	1
 1375              		.global	usart_block_length_config
 1376              		.syntax unified
 1377              		.thumb
 1378              		.thumb_func
 1380              	usart_block_length_config:
 1381              	.LVL93:
 1382              	.LFB153:
 662:Drivers/GD32F4xx_standard_peripheral/Source/gd32f4xx_usart.c **** 
 663:Drivers/GD32F4xx_standard_peripheral/Source/gd32f4xx_usart.c **** /*!
 664:Drivers/GD32F4xx_standard_peripheral/Source/gd32f4xx_usart.c ****     \brief    configure block length in Smartcard T=1 reception
 665:Drivers/GD32F4xx_standard_peripheral/Source/gd32f4xx_usart.c ****     \param[in]  usart_periph: USARTx(x=0,1,2,5)
 666:Drivers/GD32F4xx_standard_peripheral/Source/gd32f4xx_usart.c ****     \param[in]  bl: block length
 667:Drivers/GD32F4xx_standard_peripheral/Source/gd32f4xx_usart.c ****     \param[out] none
 668:Drivers/GD32F4xx_standard_peripheral/Source/gd32f4xx_usart.c ****     \retval     none
 669:Drivers/GD32F4xx_standard_peripheral/Source/gd32f4xx_usart.c **** */
 670:Drivers/GD32F4xx_standard_peripheral/Source/gd32f4xx_usart.c **** void usart_block_length_config(uint32_t usart_periph, uint32_t bl)
 671:Drivers/GD32F4xx_standard_peripheral/Source/gd32f4xx_usart.c **** {
 1383              		.loc 1 671 1 is_stmt 1 view -0
 1384              		.cfi_startproc
 1385              		@ args = 0, pretend = 0, frame = 0
 1386              		@ frame_needed = 0, uses_anonymous_args = 0
 1387              		@ link register save eliminated.
 672:Drivers/GD32F4xx_standard_peripheral/Source/gd32f4xx_usart.c ****     USART_RT(usart_periph) &= ~(USART_RT_BL);
 1388              		.loc 1 672 5 view .LVU291
 1389 0000 D0F88430 		ldr	r3, [r0, #132]
 1390              		.loc 1 672 28 is_stmt 0 view .LVU292
 1391 0004 23F07F43 		bic	r3, r3, #-16777216
ARM GAS  /tmp/ccWYTPow.s 			page 37


 1392 0008 C0F88430 		str	r3, [r0, #132]
 673:Drivers/GD32F4xx_standard_peripheral/Source/gd32f4xx_usart.c ****     USART_RT(usart_periph) |= (USART_RT_BL & ((bl) << RT_BL_OFFSET));
 1393              		.loc 1 673 5 is_stmt 1 view .LVU293
 1394 000c D0F88430 		ldr	r3, [r0, #132]
 1395              		.loc 1 673 28 is_stmt 0 view .LVU294
 1396 0010 43EA0163 		orr	r3, r3, r1, lsl #24
 1397 0014 C0F88430 		str	r3, [r0, #132]
 674:Drivers/GD32F4xx_standard_peripheral/Source/gd32f4xx_usart.c **** }
 1398              		.loc 1 674 1 view .LVU295
 1399 0018 7047     		bx	lr
 1400              		.cfi_endproc
 1401              	.LFE153:
 1403              		.section	.text.usart_irda_mode_enable,"ax",%progbits
 1404              		.align	1
 1405              		.global	usart_irda_mode_enable
 1406              		.syntax unified
 1407              		.thumb
 1408              		.thumb_func
 1410              	usart_irda_mode_enable:
 1411              	.LVL94:
 1412              	.LFB154:
 675:Drivers/GD32F4xx_standard_peripheral/Source/gd32f4xx_usart.c **** 
 676:Drivers/GD32F4xx_standard_peripheral/Source/gd32f4xx_usart.c **** /*!
 677:Drivers/GD32F4xx_standard_peripheral/Source/gd32f4xx_usart.c ****     \brief    enable IrDA mode
 678:Drivers/GD32F4xx_standard_peripheral/Source/gd32f4xx_usart.c ****     \param[in]  usart_periph: USARTx(x=0,1,2,5)/UARTx(x=3,4,6,7)
 679:Drivers/GD32F4xx_standard_peripheral/Source/gd32f4xx_usart.c ****     \param[out] none
 680:Drivers/GD32F4xx_standard_peripheral/Source/gd32f4xx_usart.c ****     \retval     none
 681:Drivers/GD32F4xx_standard_peripheral/Source/gd32f4xx_usart.c **** */
 682:Drivers/GD32F4xx_standard_peripheral/Source/gd32f4xx_usart.c **** void usart_irda_mode_enable(uint32_t usart_periph)
 683:Drivers/GD32F4xx_standard_peripheral/Source/gd32f4xx_usart.c **** {
 1413              		.loc 1 683 1 is_stmt 1 view -0
 1414              		.cfi_startproc
 1415              		@ args = 0, pretend = 0, frame = 0
 1416              		@ frame_needed = 0, uses_anonymous_args = 0
 1417              		@ link register save eliminated.
 684:Drivers/GD32F4xx_standard_peripheral/Source/gd32f4xx_usart.c ****     USART_CTL2(usart_periph) |= USART_CTL2_IREN;
 1418              		.loc 1 684 5 view .LVU297
 1419 0000 4369     		ldr	r3, [r0, #20]
 1420              		.loc 1 684 30 is_stmt 0 view .LVU298
 1421 0002 43F00203 		orr	r3, r3, #2
 1422 0006 4361     		str	r3, [r0, #20]
 685:Drivers/GD32F4xx_standard_peripheral/Source/gd32f4xx_usart.c **** }
 1423              		.loc 1 685 1 view .LVU299
 1424 0008 7047     		bx	lr
 1425              		.cfi_endproc
 1426              	.LFE154:
 1428              		.section	.text.usart_irda_mode_disable,"ax",%progbits
 1429              		.align	1
 1430              		.global	usart_irda_mode_disable
 1431              		.syntax unified
 1432              		.thumb
 1433              		.thumb_func
 1435              	usart_irda_mode_disable:
 1436              	.LVL95:
 1437              	.LFB155:
 686:Drivers/GD32F4xx_standard_peripheral/Source/gd32f4xx_usart.c **** 
 687:Drivers/GD32F4xx_standard_peripheral/Source/gd32f4xx_usart.c **** /*!
ARM GAS  /tmp/ccWYTPow.s 			page 38


 688:Drivers/GD32F4xx_standard_peripheral/Source/gd32f4xx_usart.c ****     \brief    disable IrDA mode
 689:Drivers/GD32F4xx_standard_peripheral/Source/gd32f4xx_usart.c ****     \param[in]  usart_periph: USARTx(x=0,1,2,5)/UARTx(x=3,4,6,7)
 690:Drivers/GD32F4xx_standard_peripheral/Source/gd32f4xx_usart.c ****     \param[out] none
 691:Drivers/GD32F4xx_standard_peripheral/Source/gd32f4xx_usart.c ****     \retval     none
 692:Drivers/GD32F4xx_standard_peripheral/Source/gd32f4xx_usart.c **** */
 693:Drivers/GD32F4xx_standard_peripheral/Source/gd32f4xx_usart.c **** void usart_irda_mode_disable(uint32_t usart_periph)
 694:Drivers/GD32F4xx_standard_peripheral/Source/gd32f4xx_usart.c **** {
 1438              		.loc 1 694 1 is_stmt 1 view -0
 1439              		.cfi_startproc
 1440              		@ args = 0, pretend = 0, frame = 0
 1441              		@ frame_needed = 0, uses_anonymous_args = 0
 1442              		@ link register save eliminated.
 695:Drivers/GD32F4xx_standard_peripheral/Source/gd32f4xx_usart.c ****     USART_CTL2(usart_periph) &= ~(USART_CTL2_IREN);
 1443              		.loc 1 695 5 view .LVU301
 1444 0000 4369     		ldr	r3, [r0, #20]
 1445              		.loc 1 695 30 is_stmt 0 view .LVU302
 1446 0002 23F00203 		bic	r3, r3, #2
 1447 0006 4361     		str	r3, [r0, #20]
 696:Drivers/GD32F4xx_standard_peripheral/Source/gd32f4xx_usart.c **** }
 1448              		.loc 1 696 1 view .LVU303
 1449 0008 7047     		bx	lr
 1450              		.cfi_endproc
 1451              	.LFE155:
 1453              		.section	.text.usart_prescaler_config,"ax",%progbits
 1454              		.align	1
 1455              		.global	usart_prescaler_config
 1456              		.syntax unified
 1457              		.thumb
 1458              		.thumb_func
 1460              	usart_prescaler_config:
 1461              	.LVL96:
 1462              	.LFB156:
 697:Drivers/GD32F4xx_standard_peripheral/Source/gd32f4xx_usart.c **** 
 698:Drivers/GD32F4xx_standard_peripheral/Source/gd32f4xx_usart.c **** /*!
 699:Drivers/GD32F4xx_standard_peripheral/Source/gd32f4xx_usart.c ****     \brief    configure the peripheral clock prescaler in USART IrDA low-power mode
 700:Drivers/GD32F4xx_standard_peripheral/Source/gd32f4xx_usart.c ****     \param[in]  usart_periph: USARTx(x=0,1,2,5)/UARTx(x=3,4,6,7)
 701:Drivers/GD32F4xx_standard_peripheral/Source/gd32f4xx_usart.c ****     \param[in]  psc: 0-0xFF
 702:Drivers/GD32F4xx_standard_peripheral/Source/gd32f4xx_usart.c ****     \param[out] none
 703:Drivers/GD32F4xx_standard_peripheral/Source/gd32f4xx_usart.c ****     \retval     none
 704:Drivers/GD32F4xx_standard_peripheral/Source/gd32f4xx_usart.c **** */
 705:Drivers/GD32F4xx_standard_peripheral/Source/gd32f4xx_usart.c **** void usart_prescaler_config(uint32_t usart_periph, uint8_t psc)
 706:Drivers/GD32F4xx_standard_peripheral/Source/gd32f4xx_usart.c **** {
 1463              		.loc 1 706 1 is_stmt 1 view -0
 1464              		.cfi_startproc
 1465              		@ args = 0, pretend = 0, frame = 0
 1466              		@ frame_needed = 0, uses_anonymous_args = 0
 1467              		@ link register save eliminated.
 707:Drivers/GD32F4xx_standard_peripheral/Source/gd32f4xx_usart.c ****     USART_GP(usart_periph) &= ~(USART_GP_PSC);
 1468              		.loc 1 707 5 view .LVU305
 1469 0000 8369     		ldr	r3, [r0, #24]
 1470              		.loc 1 707 28 is_stmt 0 view .LVU306
 1471 0002 23F0FF03 		bic	r3, r3, #255
 1472 0006 8361     		str	r3, [r0, #24]
 708:Drivers/GD32F4xx_standard_peripheral/Source/gd32f4xx_usart.c ****     USART_GP(usart_periph) |= psc;
 1473              		.loc 1 708 5 is_stmt 1 view .LVU307
 1474 0008 8369     		ldr	r3, [r0, #24]
 1475              		.loc 1 708 28 is_stmt 0 view .LVU308
ARM GAS  /tmp/ccWYTPow.s 			page 39


 1476 000a 1943     		orrs	r1, r1, r3
 1477              	.LVL97:
 1478              		.loc 1 708 28 view .LVU309
 1479 000c 8161     		str	r1, [r0, #24]
 709:Drivers/GD32F4xx_standard_peripheral/Source/gd32f4xx_usart.c **** }
 1480              		.loc 1 709 1 view .LVU310
 1481 000e 7047     		bx	lr
 1482              		.cfi_endproc
 1483              	.LFE156:
 1485              		.section	.text.usart_irda_lowpower_config,"ax",%progbits
 1486              		.align	1
 1487              		.global	usart_irda_lowpower_config
 1488              		.syntax unified
 1489              		.thumb
 1490              		.thumb_func
 1492              	usart_irda_lowpower_config:
 1493              	.LVL98:
 1494              	.LFB157:
 710:Drivers/GD32F4xx_standard_peripheral/Source/gd32f4xx_usart.c **** 
 711:Drivers/GD32F4xx_standard_peripheral/Source/gd32f4xx_usart.c **** /*!
 712:Drivers/GD32F4xx_standard_peripheral/Source/gd32f4xx_usart.c ****     \brief    configure IrDA low-power
 713:Drivers/GD32F4xx_standard_peripheral/Source/gd32f4xx_usart.c ****     \param[in]  usart_periph: USARTx(x=0,1,2,5)/UARTx(x=3,4,6,7)
 714:Drivers/GD32F4xx_standard_peripheral/Source/gd32f4xx_usart.c ****     \param[in]  irlp: IrDA low-power or normal
 715:Drivers/GD32F4xx_standard_peripheral/Source/gd32f4xx_usart.c ****                 only one parameter can be selected which is shown as below:
 716:Drivers/GD32F4xx_standard_peripheral/Source/gd32f4xx_usart.c ****       \arg        USART_IRLP_LOW: low-power
 717:Drivers/GD32F4xx_standard_peripheral/Source/gd32f4xx_usart.c ****       \arg        USART_IRLP_NORMAL: normal
 718:Drivers/GD32F4xx_standard_peripheral/Source/gd32f4xx_usart.c ****     \param[out] none
 719:Drivers/GD32F4xx_standard_peripheral/Source/gd32f4xx_usart.c ****     \retval     none
 720:Drivers/GD32F4xx_standard_peripheral/Source/gd32f4xx_usart.c **** */
 721:Drivers/GD32F4xx_standard_peripheral/Source/gd32f4xx_usart.c **** void usart_irda_lowpower_config(uint32_t usart_periph, uint32_t irlp)
 722:Drivers/GD32F4xx_standard_peripheral/Source/gd32f4xx_usart.c **** {
 1495              		.loc 1 722 1 is_stmt 1 view -0
 1496              		.cfi_startproc
 1497              		@ args = 0, pretend = 0, frame = 0
 1498              		@ frame_needed = 0, uses_anonymous_args = 0
 1499              		@ link register save eliminated.
 723:Drivers/GD32F4xx_standard_peripheral/Source/gd32f4xx_usart.c ****     USART_CTL2(usart_periph) &= ~(USART_CTL2_IRLP);
 1500              		.loc 1 723 5 view .LVU312
 1501 0000 4369     		ldr	r3, [r0, #20]
 1502              		.loc 1 723 30 is_stmt 0 view .LVU313
 1503 0002 23F00403 		bic	r3, r3, #4
 1504 0006 4361     		str	r3, [r0, #20]
 724:Drivers/GD32F4xx_standard_peripheral/Source/gd32f4xx_usart.c ****     USART_CTL2(usart_periph) |= (USART_CTL2_IRLP & irlp);
 1505              		.loc 1 724 5 is_stmt 1 view .LVU314
 1506 0008 4369     		ldr	r3, [r0, #20]
 1507              		.loc 1 724 50 is_stmt 0 view .LVU315
 1508 000a 01F00401 		and	r1, r1, #4
 1509              	.LVL99:
 1510              		.loc 1 724 30 view .LVU316
 1511 000e 1943     		orrs	r1, r1, r3
 1512 0010 4161     		str	r1, [r0, #20]
 725:Drivers/GD32F4xx_standard_peripheral/Source/gd32f4xx_usart.c **** }
 1513              		.loc 1 725 1 view .LVU317
 1514 0012 7047     		bx	lr
 1515              		.cfi_endproc
 1516              	.LFE157:
 1518              		.section	.text.usart_hardware_flow_rts_config,"ax",%progbits
ARM GAS  /tmp/ccWYTPow.s 			page 40


 1519              		.align	1
 1520              		.global	usart_hardware_flow_rts_config
 1521              		.syntax unified
 1522              		.thumb
 1523              		.thumb_func
 1525              	usart_hardware_flow_rts_config:
 1526              	.LVL100:
 1527              	.LFB158:
 726:Drivers/GD32F4xx_standard_peripheral/Source/gd32f4xx_usart.c **** 
 727:Drivers/GD32F4xx_standard_peripheral/Source/gd32f4xx_usart.c **** /*!
 728:Drivers/GD32F4xx_standard_peripheral/Source/gd32f4xx_usart.c ****     \brief    configure hardware flow control RTS
 729:Drivers/GD32F4xx_standard_peripheral/Source/gd32f4xx_usart.c ****     \param[in]  usart_periph: USARTx(x=0,1,2,5)
 730:Drivers/GD32F4xx_standard_peripheral/Source/gd32f4xx_usart.c ****     \param[in]  rtsconfig: enable or disable RTS
 731:Drivers/GD32F4xx_standard_peripheral/Source/gd32f4xx_usart.c ****                 only one parameter can be selected which is shown as below:
 732:Drivers/GD32F4xx_standard_peripheral/Source/gd32f4xx_usart.c ****       \arg        USART_RTS_ENABLE:  enable RTS
 733:Drivers/GD32F4xx_standard_peripheral/Source/gd32f4xx_usart.c ****       \arg        USART_RTS_DISABLE: disable RTS
 734:Drivers/GD32F4xx_standard_peripheral/Source/gd32f4xx_usart.c ****     \param[out] none
 735:Drivers/GD32F4xx_standard_peripheral/Source/gd32f4xx_usart.c ****     \retval     none
 736:Drivers/GD32F4xx_standard_peripheral/Source/gd32f4xx_usart.c **** */
 737:Drivers/GD32F4xx_standard_peripheral/Source/gd32f4xx_usart.c **** void usart_hardware_flow_rts_config(uint32_t usart_periph, uint32_t rtsconfig)
 738:Drivers/GD32F4xx_standard_peripheral/Source/gd32f4xx_usart.c **** {
 1528              		.loc 1 738 1 is_stmt 1 view -0
 1529              		.cfi_startproc
 1530              		@ args = 0, pretend = 0, frame = 0
 1531              		@ frame_needed = 0, uses_anonymous_args = 0
 1532              		@ link register save eliminated.
 739:Drivers/GD32F4xx_standard_peripheral/Source/gd32f4xx_usart.c ****     uint32_t ctl = 0U;
 1533              		.loc 1 739 5 view .LVU319
 740:Drivers/GD32F4xx_standard_peripheral/Source/gd32f4xx_usart.c **** 
 741:Drivers/GD32F4xx_standard_peripheral/Source/gd32f4xx_usart.c ****     ctl = USART_CTL2(usart_periph);
 1534              		.loc 1 741 5 view .LVU320
 1535              		.loc 1 741 9 is_stmt 0 view .LVU321
 1536 0000 4369     		ldr	r3, [r0, #20]
 1537              	.LVL101:
 742:Drivers/GD32F4xx_standard_peripheral/Source/gd32f4xx_usart.c ****     ctl &= ~USART_CTL2_RTSEN;
 1538              		.loc 1 742 5 is_stmt 1 view .LVU322
 1539              		.loc 1 742 9 is_stmt 0 view .LVU323
 1540 0002 23F48073 		bic	r3, r3, #256
 1541              	.LVL102:
 743:Drivers/GD32F4xx_standard_peripheral/Source/gd32f4xx_usart.c ****     ctl |= rtsconfig;
 1542              		.loc 1 743 5 is_stmt 1 view .LVU324
 1543              		.loc 1 743 9 is_stmt 0 view .LVU325
 1544 0006 0B43     		orrs	r3, r3, r1
 1545              	.LVL103:
 744:Drivers/GD32F4xx_standard_peripheral/Source/gd32f4xx_usart.c ****     /* configure RTS */
 745:Drivers/GD32F4xx_standard_peripheral/Source/gd32f4xx_usart.c ****     USART_CTL2(usart_periph) = ctl;
 1546              		.loc 1 745 5 is_stmt 1 view .LVU326
 1547              		.loc 1 745 30 is_stmt 0 view .LVU327
 1548 0008 4361     		str	r3, [r0, #20]
 746:Drivers/GD32F4xx_standard_peripheral/Source/gd32f4xx_usart.c **** }
 1549              		.loc 1 746 1 view .LVU328
 1550 000a 7047     		bx	lr
 1551              		.cfi_endproc
 1552              	.LFE158:
 1554              		.section	.text.usart_hardware_flow_cts_config,"ax",%progbits
 1555              		.align	1
 1556              		.global	usart_hardware_flow_cts_config
ARM GAS  /tmp/ccWYTPow.s 			page 41


 1557              		.syntax unified
 1558              		.thumb
 1559              		.thumb_func
 1561              	usart_hardware_flow_cts_config:
 1562              	.LVL104:
 1563              	.LFB159:
 747:Drivers/GD32F4xx_standard_peripheral/Source/gd32f4xx_usart.c **** 
 748:Drivers/GD32F4xx_standard_peripheral/Source/gd32f4xx_usart.c **** /*!
 749:Drivers/GD32F4xx_standard_peripheral/Source/gd32f4xx_usart.c ****     \brief    configure hardware flow control CTS
 750:Drivers/GD32F4xx_standard_peripheral/Source/gd32f4xx_usart.c ****     \param[in]  usart_periph: USARTx(x=0,1,2,5)
 751:Drivers/GD32F4xx_standard_peripheral/Source/gd32f4xx_usart.c ****     \param[in]  ctsconfig: enable or disable CTS
 752:Drivers/GD32F4xx_standard_peripheral/Source/gd32f4xx_usart.c ****                 only one parameter can be selected which is shown as below:
 753:Drivers/GD32F4xx_standard_peripheral/Source/gd32f4xx_usart.c ****       \arg        USART_CTS_ENABLE:  enable CTS
 754:Drivers/GD32F4xx_standard_peripheral/Source/gd32f4xx_usart.c ****       \arg        USART_CTS_DISABLE: disable CTS
 755:Drivers/GD32F4xx_standard_peripheral/Source/gd32f4xx_usart.c ****     \param[out] none
 756:Drivers/GD32F4xx_standard_peripheral/Source/gd32f4xx_usart.c ****     \retval     none
 757:Drivers/GD32F4xx_standard_peripheral/Source/gd32f4xx_usart.c **** */
 758:Drivers/GD32F4xx_standard_peripheral/Source/gd32f4xx_usart.c **** void usart_hardware_flow_cts_config(uint32_t usart_periph, uint32_t ctsconfig)
 759:Drivers/GD32F4xx_standard_peripheral/Source/gd32f4xx_usart.c **** {
 1564              		.loc 1 759 1 is_stmt 1 view -0
 1565              		.cfi_startproc
 1566              		@ args = 0, pretend = 0, frame = 0
 1567              		@ frame_needed = 0, uses_anonymous_args = 0
 1568              		@ link register save eliminated.
 760:Drivers/GD32F4xx_standard_peripheral/Source/gd32f4xx_usart.c ****     uint32_t ctl = 0U;
 1569              		.loc 1 760 5 view .LVU330
 761:Drivers/GD32F4xx_standard_peripheral/Source/gd32f4xx_usart.c **** 
 762:Drivers/GD32F4xx_standard_peripheral/Source/gd32f4xx_usart.c ****     ctl = USART_CTL2(usart_periph);
 1570              		.loc 1 762 5 view .LVU331
 1571              		.loc 1 762 9 is_stmt 0 view .LVU332
 1572 0000 4369     		ldr	r3, [r0, #20]
 1573              	.LVL105:
 763:Drivers/GD32F4xx_standard_peripheral/Source/gd32f4xx_usart.c ****     ctl &= ~USART_CTL2_CTSEN;
 1574              		.loc 1 763 5 is_stmt 1 view .LVU333
 1575              		.loc 1 763 9 is_stmt 0 view .LVU334
 1576 0002 23F40073 		bic	r3, r3, #512
 1577              	.LVL106:
 764:Drivers/GD32F4xx_standard_peripheral/Source/gd32f4xx_usart.c ****     ctl |= ctsconfig;
 1578              		.loc 1 764 5 is_stmt 1 view .LVU335
 1579              		.loc 1 764 9 is_stmt 0 view .LVU336
 1580 0006 0B43     		orrs	r3, r3, r1
 1581              	.LVL107:
 765:Drivers/GD32F4xx_standard_peripheral/Source/gd32f4xx_usart.c ****     /* configure CTS */
 766:Drivers/GD32F4xx_standard_peripheral/Source/gd32f4xx_usart.c ****     USART_CTL2(usart_periph) = ctl;
 1582              		.loc 1 766 5 is_stmt 1 view .LVU337
 1583              		.loc 1 766 30 is_stmt 0 view .LVU338
 1584 0008 4361     		str	r3, [r0, #20]
 767:Drivers/GD32F4xx_standard_peripheral/Source/gd32f4xx_usart.c **** }
 1585              		.loc 1 767 1 view .LVU339
 1586 000a 7047     		bx	lr
 1587              		.cfi_endproc
 1588              	.LFE159:
 1590              		.section	.text.usart_break_frame_coherence_config,"ax",%progbits
 1591              		.align	1
 1592              		.global	usart_break_frame_coherence_config
 1593              		.syntax unified
 1594              		.thumb
ARM GAS  /tmp/ccWYTPow.s 			page 42


 1595              		.thumb_func
 1597              	usart_break_frame_coherence_config:
 1598              	.LVL108:
 1599              	.LFB160:
 768:Drivers/GD32F4xx_standard_peripheral/Source/gd32f4xx_usart.c **** 
 769:Drivers/GD32F4xx_standard_peripheral/Source/gd32f4xx_usart.c **** /*!
 770:Drivers/GD32F4xx_standard_peripheral/Source/gd32f4xx_usart.c ****     \brief    configure break frame coherence mode
 771:Drivers/GD32F4xx_standard_peripheral/Source/gd32f4xx_usart.c ****     \param[in]  usart_periph: USARTx(x=0,1,2,5)
 772:Drivers/GD32F4xx_standard_peripheral/Source/gd32f4xx_usart.c ****     \param[in]  bcm:
 773:Drivers/GD32F4xx_standard_peripheral/Source/gd32f4xx_usart.c ****                 only one parameter can be selected which is shown as below:
 774:Drivers/GD32F4xx_standard_peripheral/Source/gd32f4xx_usart.c ****       \arg        USART_BCM_NONE: no parity error is detected
 775:Drivers/GD32F4xx_standard_peripheral/Source/gd32f4xx_usart.c ****       \arg        USART_BCM_EN:   parity error is detected
 776:Drivers/GD32F4xx_standard_peripheral/Source/gd32f4xx_usart.c ****     \param[out] none
 777:Drivers/GD32F4xx_standard_peripheral/Source/gd32f4xx_usart.c ****     \retval     none
 778:Drivers/GD32F4xx_standard_peripheral/Source/gd32f4xx_usart.c **** */
 779:Drivers/GD32F4xx_standard_peripheral/Source/gd32f4xx_usart.c **** void usart_break_frame_coherence_config(uint32_t usart_periph, uint32_t bcm)
 780:Drivers/GD32F4xx_standard_peripheral/Source/gd32f4xx_usart.c **** {
 1600              		.loc 1 780 1 is_stmt 1 view -0
 1601              		.cfi_startproc
 1602              		@ args = 0, pretend = 0, frame = 0
 1603              		@ frame_needed = 0, uses_anonymous_args = 0
 1604              		@ link register save eliminated.
 781:Drivers/GD32F4xx_standard_peripheral/Source/gd32f4xx_usart.c ****     USART_CHC(usart_periph) &= ~(USART_CHC_BCM);
 1605              		.loc 1 781 5 view .LVU341
 1606 0000 D0F8C030 		ldr	r3, [r0, #192]
 1607              		.loc 1 781 29 is_stmt 0 view .LVU342
 1608 0004 23F00403 		bic	r3, r3, #4
 1609 0008 C0F8C030 		str	r3, [r0, #192]
 782:Drivers/GD32F4xx_standard_peripheral/Source/gd32f4xx_usart.c ****     USART_CHC(usart_periph) |= (USART_CHC_BCM & bcm);
 1610              		.loc 1 782 5 is_stmt 1 view .LVU343
 1611 000c D0F8C030 		ldr	r3, [r0, #192]
 1612              		.loc 1 782 47 is_stmt 0 view .LVU344
 1613 0010 01F00401 		and	r1, r1, #4
 1614              	.LVL109:
 1615              		.loc 1 782 29 view .LVU345
 1616 0014 1943     		orrs	r1, r1, r3
 1617 0016 C0F8C010 		str	r1, [r0, #192]
 783:Drivers/GD32F4xx_standard_peripheral/Source/gd32f4xx_usart.c **** }
 1618              		.loc 1 783 1 view .LVU346
 1619 001a 7047     		bx	lr
 1620              		.cfi_endproc
 1621              	.LFE160:
 1623              		.section	.text.usart_parity_check_coherence_config,"ax",%progbits
 1624              		.align	1
 1625              		.global	usart_parity_check_coherence_config
 1626              		.syntax unified
 1627              		.thumb
 1628              		.thumb_func
 1630              	usart_parity_check_coherence_config:
 1631              	.LVL110:
 1632              	.LFB161:
 784:Drivers/GD32F4xx_standard_peripheral/Source/gd32f4xx_usart.c **** 
 785:Drivers/GD32F4xx_standard_peripheral/Source/gd32f4xx_usart.c **** /*!
 786:Drivers/GD32F4xx_standard_peripheral/Source/gd32f4xx_usart.c ****     \brief    configure parity check coherence mode
 787:Drivers/GD32F4xx_standard_peripheral/Source/gd32f4xx_usart.c ****     \param[in]  usart_periph: USARTx(x=0,1,2,5)/UARTx(x=3,4,6,7)
 788:Drivers/GD32F4xx_standard_peripheral/Source/gd32f4xx_usart.c ****     \param[in]  pcm:
 789:Drivers/GD32F4xx_standard_peripheral/Source/gd32f4xx_usart.c ****                 only one parameter can be selected which is shown as below:
ARM GAS  /tmp/ccWYTPow.s 			page 43


 790:Drivers/GD32F4xx_standard_peripheral/Source/gd32f4xx_usart.c ****       \arg        USART_PCM_NONE: not check parity
 791:Drivers/GD32F4xx_standard_peripheral/Source/gd32f4xx_usart.c ****       \arg        USART_PCM_EN:   check the parity
 792:Drivers/GD32F4xx_standard_peripheral/Source/gd32f4xx_usart.c ****     \param[out] none
 793:Drivers/GD32F4xx_standard_peripheral/Source/gd32f4xx_usart.c ****     \retval     none
 794:Drivers/GD32F4xx_standard_peripheral/Source/gd32f4xx_usart.c **** */
 795:Drivers/GD32F4xx_standard_peripheral/Source/gd32f4xx_usart.c **** void usart_parity_check_coherence_config(uint32_t usart_periph, uint32_t pcm)
 796:Drivers/GD32F4xx_standard_peripheral/Source/gd32f4xx_usart.c **** {
 1633              		.loc 1 796 1 is_stmt 1 view -0
 1634              		.cfi_startproc
 1635              		@ args = 0, pretend = 0, frame = 0
 1636              		@ frame_needed = 0, uses_anonymous_args = 0
 1637              		@ link register save eliminated.
 797:Drivers/GD32F4xx_standard_peripheral/Source/gd32f4xx_usart.c ****     USART_CHC(usart_periph) &= ~(USART_CHC_PCM);
 1638              		.loc 1 797 5 view .LVU348
 1639 0000 D0F8C030 		ldr	r3, [r0, #192]
 1640              		.loc 1 797 29 is_stmt 0 view .LVU349
 1641 0004 23F00203 		bic	r3, r3, #2
 1642 0008 C0F8C030 		str	r3, [r0, #192]
 798:Drivers/GD32F4xx_standard_peripheral/Source/gd32f4xx_usart.c ****     USART_CHC(usart_periph) |= (USART_CHC_PCM & pcm);
 1643              		.loc 1 798 5 is_stmt 1 view .LVU350
 1644 000c D0F8C030 		ldr	r3, [r0, #192]
 1645              		.loc 1 798 47 is_stmt 0 view .LVU351
 1646 0010 01F00201 		and	r1, r1, #2
 1647              	.LVL111:
 1648              		.loc 1 798 29 view .LVU352
 1649 0014 1943     		orrs	r1, r1, r3
 1650 0016 C0F8C010 		str	r1, [r0, #192]
 799:Drivers/GD32F4xx_standard_peripheral/Source/gd32f4xx_usart.c **** }
 1651              		.loc 1 799 1 view .LVU353
 1652 001a 7047     		bx	lr
 1653              		.cfi_endproc
 1654              	.LFE161:
 1656              		.section	.text.usart_hardware_flow_coherence_config,"ax",%progbits
 1657              		.align	1
 1658              		.global	usart_hardware_flow_coherence_config
 1659              		.syntax unified
 1660              		.thumb
 1661              		.thumb_func
 1663              	usart_hardware_flow_coherence_config:
 1664              	.LVL112:
 1665              	.LFB162:
 800:Drivers/GD32F4xx_standard_peripheral/Source/gd32f4xx_usart.c **** 
 801:Drivers/GD32F4xx_standard_peripheral/Source/gd32f4xx_usart.c **** /*!
 802:Drivers/GD32F4xx_standard_peripheral/Source/gd32f4xx_usart.c ****     \brief    configure hardware flow control coherence mode
 803:Drivers/GD32F4xx_standard_peripheral/Source/gd32f4xx_usart.c ****     \param[in]  usart_periph: USARTx(x=0,1,2,5)
 804:Drivers/GD32F4xx_standard_peripheral/Source/gd32f4xx_usart.c ****     \param[in]  hcm:
 805:Drivers/GD32F4xx_standard_peripheral/Source/gd32f4xx_usart.c ****                 only one parameter can be selected which is shown as below:
 806:Drivers/GD32F4xx_standard_peripheral/Source/gd32f4xx_usart.c ****       \arg        USART_HCM_NONE: nRTS signal equals to the rxne status register
 807:Drivers/GD32F4xx_standard_peripheral/Source/gd32f4xx_usart.c ****       \arg        USART_HCM_EN:   nRTS signal is set when the last data bit has been sampled
 808:Drivers/GD32F4xx_standard_peripheral/Source/gd32f4xx_usart.c ****     \param[out] none
 809:Drivers/GD32F4xx_standard_peripheral/Source/gd32f4xx_usart.c ****     \retval     none
 810:Drivers/GD32F4xx_standard_peripheral/Source/gd32f4xx_usart.c **** */
 811:Drivers/GD32F4xx_standard_peripheral/Source/gd32f4xx_usart.c **** void usart_hardware_flow_coherence_config(uint32_t usart_periph, uint32_t hcm)
 812:Drivers/GD32F4xx_standard_peripheral/Source/gd32f4xx_usart.c **** {
 1666              		.loc 1 812 1 is_stmt 1 view -0
 1667              		.cfi_startproc
 1668              		@ args = 0, pretend = 0, frame = 0
ARM GAS  /tmp/ccWYTPow.s 			page 44


 1669              		@ frame_needed = 0, uses_anonymous_args = 0
 1670              		@ link register save eliminated.
 813:Drivers/GD32F4xx_standard_peripheral/Source/gd32f4xx_usart.c ****     USART_CHC(usart_periph) &= ~(USART_CHC_HCM);
 1671              		.loc 1 813 5 view .LVU355
 1672 0000 D0F8C030 		ldr	r3, [r0, #192]
 1673              		.loc 1 813 29 is_stmt 0 view .LVU356
 1674 0004 23F00103 		bic	r3, r3, #1
 1675 0008 C0F8C030 		str	r3, [r0, #192]
 814:Drivers/GD32F4xx_standard_peripheral/Source/gd32f4xx_usart.c ****     USART_CHC(usart_periph) |= (USART_CHC_HCM & hcm);
 1676              		.loc 1 814 5 is_stmt 1 view .LVU357
 1677 000c D0F8C030 		ldr	r3, [r0, #192]
 1678              		.loc 1 814 47 is_stmt 0 view .LVU358
 1679 0010 01F00101 		and	r1, r1, #1
 1680              	.LVL113:
 1681              		.loc 1 814 29 view .LVU359
 1682 0014 1943     		orrs	r1, r1, r3
 1683 0016 C0F8C010 		str	r1, [r0, #192]
 815:Drivers/GD32F4xx_standard_peripheral/Source/gd32f4xx_usart.c **** }
 1684              		.loc 1 815 1 view .LVU360
 1685 001a 7047     		bx	lr
 1686              		.cfi_endproc
 1687              	.LFE162:
 1689              		.section	.text.usart_dma_receive_config,"ax",%progbits
 1690              		.align	1
 1691              		.global	usart_dma_receive_config
 1692              		.syntax unified
 1693              		.thumb
 1694              		.thumb_func
 1696              	usart_dma_receive_config:
 1697              	.LVL114:
 1698              	.LFB163:
 816:Drivers/GD32F4xx_standard_peripheral/Source/gd32f4xx_usart.c **** 
 817:Drivers/GD32F4xx_standard_peripheral/Source/gd32f4xx_usart.c **** /*!
 818:Drivers/GD32F4xx_standard_peripheral/Source/gd32f4xx_usart.c ****     \brief    configure USART DMA reception
 819:Drivers/GD32F4xx_standard_peripheral/Source/gd32f4xx_usart.c ****     \param[in]  usart_periph: USARTx(x=0,1,2,5)/UARTx(x=3,4,6,7)
 820:Drivers/GD32F4xx_standard_peripheral/Source/gd32f4xx_usart.c ****     \param[in]  dmacmd: enable or disable DMA for reception
 821:Drivers/GD32F4xx_standard_peripheral/Source/gd32f4xx_usart.c ****                 only one parameter can be selected which is shown as below:
 822:Drivers/GD32F4xx_standard_peripheral/Source/gd32f4xx_usart.c ****       \arg        USART_DENR_ENABLE:  DMA enable for reception
 823:Drivers/GD32F4xx_standard_peripheral/Source/gd32f4xx_usart.c ****       \arg        USART_DENR_DISABLE: DMA disable for reception
 824:Drivers/GD32F4xx_standard_peripheral/Source/gd32f4xx_usart.c ****     \param[out] none
 825:Drivers/GD32F4xx_standard_peripheral/Source/gd32f4xx_usart.c ****     \retval     none
 826:Drivers/GD32F4xx_standard_peripheral/Source/gd32f4xx_usart.c **** */
 827:Drivers/GD32F4xx_standard_peripheral/Source/gd32f4xx_usart.c **** void usart_dma_receive_config(uint32_t usart_periph, uint32_t dmacmd)
 828:Drivers/GD32F4xx_standard_peripheral/Source/gd32f4xx_usart.c **** {
 1699              		.loc 1 828 1 is_stmt 1 view -0
 1700              		.cfi_startproc
 1701              		@ args = 0, pretend = 0, frame = 0
 1702              		@ frame_needed = 0, uses_anonymous_args = 0
 1703              		@ link register save eliminated.
 829:Drivers/GD32F4xx_standard_peripheral/Source/gd32f4xx_usart.c ****     uint32_t ctl = 0U;
 1704              		.loc 1 829 5 view .LVU362
 830:Drivers/GD32F4xx_standard_peripheral/Source/gd32f4xx_usart.c **** 
 831:Drivers/GD32F4xx_standard_peripheral/Source/gd32f4xx_usart.c ****     ctl = USART_CTL2(usart_periph);
 1705              		.loc 1 831 5 view .LVU363
 1706              		.loc 1 831 9 is_stmt 0 view .LVU364
 1707 0000 4369     		ldr	r3, [r0, #20]
 1708              	.LVL115:
ARM GAS  /tmp/ccWYTPow.s 			page 45


 832:Drivers/GD32F4xx_standard_peripheral/Source/gd32f4xx_usart.c ****     ctl &= ~USART_CTL2_DENR;
 1709              		.loc 1 832 5 is_stmt 1 view .LVU365
 1710              		.loc 1 832 9 is_stmt 0 view .LVU366
 1711 0002 23F04003 		bic	r3, r3, #64
 1712              	.LVL116:
 833:Drivers/GD32F4xx_standard_peripheral/Source/gd32f4xx_usart.c ****     ctl |= dmacmd;
 1713              		.loc 1 833 5 is_stmt 1 view .LVU367
 1714              		.loc 1 833 9 is_stmt 0 view .LVU368
 1715 0006 0B43     		orrs	r3, r3, r1
 1716              	.LVL117:
 834:Drivers/GD32F4xx_standard_peripheral/Source/gd32f4xx_usart.c ****     /* configure DMA reception */
 835:Drivers/GD32F4xx_standard_peripheral/Source/gd32f4xx_usart.c ****     USART_CTL2(usart_periph) = ctl;
 1717              		.loc 1 835 5 is_stmt 1 view .LVU369
 1718              		.loc 1 835 30 is_stmt 0 view .LVU370
 1719 0008 4361     		str	r3, [r0, #20]
 836:Drivers/GD32F4xx_standard_peripheral/Source/gd32f4xx_usart.c **** }
 1720              		.loc 1 836 1 view .LVU371
 1721 000a 7047     		bx	lr
 1722              		.cfi_endproc
 1723              	.LFE163:
 1725              		.section	.text.usart_dma_transmit_config,"ax",%progbits
 1726              		.align	1
 1727              		.global	usart_dma_transmit_config
 1728              		.syntax unified
 1729              		.thumb
 1730              		.thumb_func
 1732              	usart_dma_transmit_config:
 1733              	.LVL118:
 1734              	.LFB164:
 837:Drivers/GD32F4xx_standard_peripheral/Source/gd32f4xx_usart.c **** 
 838:Drivers/GD32F4xx_standard_peripheral/Source/gd32f4xx_usart.c **** /*!
 839:Drivers/GD32F4xx_standard_peripheral/Source/gd32f4xx_usart.c ****     \brief    configure USART DMA transmission
 840:Drivers/GD32F4xx_standard_peripheral/Source/gd32f4xx_usart.c ****     \param[in]  usart_periph: USARTx(x=0,1,2,5)/UARTx(x=3,4,6,7)
 841:Drivers/GD32F4xx_standard_peripheral/Source/gd32f4xx_usart.c ****     \param[in]  dmacmd: enable or disable DMA for transmission
 842:Drivers/GD32F4xx_standard_peripheral/Source/gd32f4xx_usart.c ****                 only one parameter can be selected which is shown as below:
 843:Drivers/GD32F4xx_standard_peripheral/Source/gd32f4xx_usart.c ****       \arg        USART_DENT_ENABLE:  DMA enable for transmission
 844:Drivers/GD32F4xx_standard_peripheral/Source/gd32f4xx_usart.c ****       \arg        USART_DENT_DISABLE: DMA disable for transmission
 845:Drivers/GD32F4xx_standard_peripheral/Source/gd32f4xx_usart.c ****     \param[out] none
 846:Drivers/GD32F4xx_standard_peripheral/Source/gd32f4xx_usart.c ****     \retval     none
 847:Drivers/GD32F4xx_standard_peripheral/Source/gd32f4xx_usart.c **** */
 848:Drivers/GD32F4xx_standard_peripheral/Source/gd32f4xx_usart.c **** void usart_dma_transmit_config(uint32_t usart_periph, uint32_t dmacmd)
 849:Drivers/GD32F4xx_standard_peripheral/Source/gd32f4xx_usart.c **** {
 1735              		.loc 1 849 1 is_stmt 1 view -0
 1736              		.cfi_startproc
 1737              		@ args = 0, pretend = 0, frame = 0
 1738              		@ frame_needed = 0, uses_anonymous_args = 0
 1739              		@ link register save eliminated.
 850:Drivers/GD32F4xx_standard_peripheral/Source/gd32f4xx_usart.c ****     uint32_t ctl = 0U;
 1740              		.loc 1 850 5 view .LVU373
 851:Drivers/GD32F4xx_standard_peripheral/Source/gd32f4xx_usart.c **** 
 852:Drivers/GD32F4xx_standard_peripheral/Source/gd32f4xx_usart.c ****     ctl = USART_CTL2(usart_periph);
 1741              		.loc 1 852 5 view .LVU374
 1742              		.loc 1 852 9 is_stmt 0 view .LVU375
 1743 0000 4369     		ldr	r3, [r0, #20]
 1744              	.LVL119:
 853:Drivers/GD32F4xx_standard_peripheral/Source/gd32f4xx_usart.c ****     ctl &= ~USART_CTL2_DENT;
 1745              		.loc 1 853 5 is_stmt 1 view .LVU376
ARM GAS  /tmp/ccWYTPow.s 			page 46


 1746              		.loc 1 853 9 is_stmt 0 view .LVU377
 1747 0002 23F08003 		bic	r3, r3, #128
 1748              	.LVL120:
 854:Drivers/GD32F4xx_standard_peripheral/Source/gd32f4xx_usart.c ****     ctl |= dmacmd;
 1749              		.loc 1 854 5 is_stmt 1 view .LVU378
 1750              		.loc 1 854 9 is_stmt 0 view .LVU379
 1751 0006 0B43     		orrs	r3, r3, r1
 1752              	.LVL121:
 855:Drivers/GD32F4xx_standard_peripheral/Source/gd32f4xx_usart.c ****     /* configure DMA transmission */
 856:Drivers/GD32F4xx_standard_peripheral/Source/gd32f4xx_usart.c ****     USART_CTL2(usart_periph) = ctl;
 1753              		.loc 1 856 5 is_stmt 1 view .LVU380
 1754              		.loc 1 856 30 is_stmt 0 view .LVU381
 1755 0008 4361     		str	r3, [r0, #20]
 857:Drivers/GD32F4xx_standard_peripheral/Source/gd32f4xx_usart.c **** }
 1756              		.loc 1 857 1 view .LVU382
 1757 000a 7047     		bx	lr
 1758              		.cfi_endproc
 1759              	.LFE164:
 1761              		.section	.text.usart_flag_get,"ax",%progbits
 1762              		.align	1
 1763              		.global	usart_flag_get
 1764              		.syntax unified
 1765              		.thumb
 1766              		.thumb_func
 1768              	usart_flag_get:
 1769              	.LVL122:
 1770              	.LFB165:
 858:Drivers/GD32F4xx_standard_peripheral/Source/gd32f4xx_usart.c **** 
 859:Drivers/GD32F4xx_standard_peripheral/Source/gd32f4xx_usart.c **** /*!
 860:Drivers/GD32F4xx_standard_peripheral/Source/gd32f4xx_usart.c ****     \brief    get flag in STAT0/STAT1/CHC register
 861:Drivers/GD32F4xx_standard_peripheral/Source/gd32f4xx_usart.c ****     \param[in]  usart_periph: USARTx(x=0,1,2,5)/UARTx(x=3,4,6,7)
 862:Drivers/GD32F4xx_standard_peripheral/Source/gd32f4xx_usart.c ****     \param[in]  flag: USART flags, refer to usart_flag_enum
 863:Drivers/GD32F4xx_standard_peripheral/Source/gd32f4xx_usart.c ****                 only one parameter can be selected which is shown as below:
 864:Drivers/GD32F4xx_standard_peripheral/Source/gd32f4xx_usart.c ****       \arg        USART_FLAG_CTS: CTS change flag
 865:Drivers/GD32F4xx_standard_peripheral/Source/gd32f4xx_usart.c ****       \arg        USART_FLAG_LBD: LIN break detected flag
 866:Drivers/GD32F4xx_standard_peripheral/Source/gd32f4xx_usart.c ****       \arg        USART_FLAG_TBE: transmit data buffer empty
 867:Drivers/GD32F4xx_standard_peripheral/Source/gd32f4xx_usart.c ****       \arg        USART_FLAG_TC: transmission complete
 868:Drivers/GD32F4xx_standard_peripheral/Source/gd32f4xx_usart.c ****       \arg        USART_FLAG_RBNE: read data buffer not empty
 869:Drivers/GD32F4xx_standard_peripheral/Source/gd32f4xx_usart.c ****       \arg        USART_FLAG_IDLE: IDLE frame detected flag
 870:Drivers/GD32F4xx_standard_peripheral/Source/gd32f4xx_usart.c ****       \arg        USART_FLAG_ORERR: overrun error
 871:Drivers/GD32F4xx_standard_peripheral/Source/gd32f4xx_usart.c ****       \arg        USART_FLAG_NERR: noise error flag
 872:Drivers/GD32F4xx_standard_peripheral/Source/gd32f4xx_usart.c ****       \arg        USART_FLAG_FERR: frame error flag
 873:Drivers/GD32F4xx_standard_peripheral/Source/gd32f4xx_usart.c ****       \arg        USART_FLAG_PERR: parity error flag
 874:Drivers/GD32F4xx_standard_peripheral/Source/gd32f4xx_usart.c ****       \arg        USART_FLAG_BSY: busy flag
 875:Drivers/GD32F4xx_standard_peripheral/Source/gd32f4xx_usart.c ****       \arg        USART_FLAG_EB: end of block flag
 876:Drivers/GD32F4xx_standard_peripheral/Source/gd32f4xx_usart.c ****       \arg        USART_FLAG_RT: receiver timeout flag
 877:Drivers/GD32F4xx_standard_peripheral/Source/gd32f4xx_usart.c ****       \arg        USART_FLAG_EPERR: early parity error flag
 878:Drivers/GD32F4xx_standard_peripheral/Source/gd32f4xx_usart.c ****     \param[out] none
 879:Drivers/GD32F4xx_standard_peripheral/Source/gd32f4xx_usart.c ****     \retval     FlagStatus: SET or RESET
 880:Drivers/GD32F4xx_standard_peripheral/Source/gd32f4xx_usart.c **** */
 881:Drivers/GD32F4xx_standard_peripheral/Source/gd32f4xx_usart.c **** FlagStatus usart_flag_get(uint32_t usart_periph, usart_flag_enum flag)
 882:Drivers/GD32F4xx_standard_peripheral/Source/gd32f4xx_usart.c **** {
 1771              		.loc 1 882 1 is_stmt 1 view -0
 1772              		.cfi_startproc
 1773              		@ args = 0, pretend = 0, frame = 0
 1774              		@ frame_needed = 0, uses_anonymous_args = 0
 1775              		@ link register save eliminated.
ARM GAS  /tmp/ccWYTPow.s 			page 47


 883:Drivers/GD32F4xx_standard_peripheral/Source/gd32f4xx_usart.c ****     if(RESET != (USART_REG_VAL(usart_periph, flag) & BIT(USART_BIT_POS(flag)))) {
 1776              		.loc 1 883 5 view .LVU384
 1777              		.loc 1 883 18 is_stmt 0 view .LVU385
 1778 0000 8B09     		lsrs	r3, r1, #6
 1779              		.loc 1 883 54 view .LVU386
 1780 0002 01F01F01 		and	r1, r1, #31
 1781              	.LVL123:
 1782              		.loc 1 883 18 view .LVU387
 1783 0006 1858     		ldr	r0, [r3, r0]
 1784              	.LVL124:
 1785              		.loc 1 883 14 view .LVU388
 1786 0008 C840     		lsrs	r0, r0, r1
 884:Drivers/GD32F4xx_standard_peripheral/Source/gd32f4xx_usart.c ****         return SET;
 885:Drivers/GD32F4xx_standard_peripheral/Source/gd32f4xx_usart.c ****     } else {
 886:Drivers/GD32F4xx_standard_peripheral/Source/gd32f4xx_usart.c ****         return RESET;
 887:Drivers/GD32F4xx_standard_peripheral/Source/gd32f4xx_usart.c ****     }
 888:Drivers/GD32F4xx_standard_peripheral/Source/gd32f4xx_usart.c **** }
 1787              		.loc 1 888 1 view .LVU389
 1788 000a 00F00100 		and	r0, r0, #1
 1789 000e 7047     		bx	lr
 1790              		.cfi_endproc
 1791              	.LFE165:
 1793              		.section	.text.usart_flag_clear,"ax",%progbits
 1794              		.align	1
 1795              		.global	usart_flag_clear
 1796              		.syntax unified
 1797              		.thumb
 1798              		.thumb_func
 1800              	usart_flag_clear:
 1801              	.LVL125:
 1802              	.LFB166:
 889:Drivers/GD32F4xx_standard_peripheral/Source/gd32f4xx_usart.c **** 
 890:Drivers/GD32F4xx_standard_peripheral/Source/gd32f4xx_usart.c **** /*!
 891:Drivers/GD32F4xx_standard_peripheral/Source/gd32f4xx_usart.c ****     \brief    clear flag in STAT0/STAT1/CHC register
 892:Drivers/GD32F4xx_standard_peripheral/Source/gd32f4xx_usart.c ****     \param[in]  usart_periph: USARTx(x=0,1,2,5)/UARTx(x=3,4,6,7)
 893:Drivers/GD32F4xx_standard_peripheral/Source/gd32f4xx_usart.c ****     \param[in]  flag: USART flags, refer to usart_flag_enum
 894:Drivers/GD32F4xx_standard_peripheral/Source/gd32f4xx_usart.c ****                 only one parameter can be selected which is shown as below:
 895:Drivers/GD32F4xx_standard_peripheral/Source/gd32f4xx_usart.c ****       \arg        USART_FLAG_CTS: CTS change flag
 896:Drivers/GD32F4xx_standard_peripheral/Source/gd32f4xx_usart.c ****       \arg        USART_FLAG_LBD: LIN break detected flag
 897:Drivers/GD32F4xx_standard_peripheral/Source/gd32f4xx_usart.c ****       \arg        USART_FLAG_TC: transmission complete
 898:Drivers/GD32F4xx_standard_peripheral/Source/gd32f4xx_usart.c ****       \arg        USART_FLAG_RBNE: read data buffer not empty
 899:Drivers/GD32F4xx_standard_peripheral/Source/gd32f4xx_usart.c ****       \arg        USART_FLAG_EB: end of block flag
 900:Drivers/GD32F4xx_standard_peripheral/Source/gd32f4xx_usart.c ****       \arg        USART_FLAG_RT: receiver timeout flag
 901:Drivers/GD32F4xx_standard_peripheral/Source/gd32f4xx_usart.c ****       \arg        USART_FLAG_EPERR: early parity error flag
 902:Drivers/GD32F4xx_standard_peripheral/Source/gd32f4xx_usart.c ****     \param[out] none
 903:Drivers/GD32F4xx_standard_peripheral/Source/gd32f4xx_usart.c ****     \retval     none
 904:Drivers/GD32F4xx_standard_peripheral/Source/gd32f4xx_usart.c **** */
 905:Drivers/GD32F4xx_standard_peripheral/Source/gd32f4xx_usart.c **** void usart_flag_clear(uint32_t usart_periph, usart_flag_enum flag)
 906:Drivers/GD32F4xx_standard_peripheral/Source/gd32f4xx_usart.c **** {
 1803              		.loc 1 906 1 is_stmt 1 view -0
 1804              		.cfi_startproc
 1805              		@ args = 0, pretend = 0, frame = 0
 1806              		@ frame_needed = 0, uses_anonymous_args = 0
 907:Drivers/GD32F4xx_standard_peripheral/Source/gd32f4xx_usart.c ****     USART_REG_VAL(usart_periph, flag) &= ~BIT(USART_BIT_POS(flag));
 1807              		.loc 1 907 5 view .LVU391
 906:Drivers/GD32F4xx_standard_peripheral/Source/gd32f4xx_usart.c ****     USART_REG_VAL(usart_periph, flag) &= ~BIT(USART_BIT_POS(flag));
 1808              		.loc 1 906 1 is_stmt 0 view .LVU392
ARM GAS  /tmp/ccWYTPow.s 			page 48


 1809 0000 10B5     		push	{r4, lr}
 1810              	.LCFI5:
 1811              		.cfi_def_cfa_offset 8
 1812              		.cfi_offset 4, -8
 1813              		.cfi_offset 14, -4
 1814              		.loc 1 907 5 view .LVU393
 1815 0002 8C09     		lsrs	r4, r1, #6
 1816              		.loc 1 907 43 view .LVU394
 1817 0004 0122     		movs	r2, #1
 1818              		.loc 1 907 5 view .LVU395
 1819 0006 2358     		ldr	r3, [r4, r0]
 1820              		.loc 1 907 43 view .LVU396
 1821 0008 01F01F01 		and	r1, r1, #31
 1822              	.LVL126:
 1823              		.loc 1 907 43 view .LVU397
 1824 000c 8A40     		lsls	r2, r2, r1
 1825              		.loc 1 907 39 view .LVU398
 1826 000e 23EA0203 		bic	r3, r3, r2
 1827 0012 2350     		str	r3, [r4, r0]
 908:Drivers/GD32F4xx_standard_peripheral/Source/gd32f4xx_usart.c **** }
 1828              		.loc 1 908 1 view .LVU399
 1829 0014 10BD     		pop	{r4, pc}
 1830              		.cfi_endproc
 1831              	.LFE166:
 1833              		.section	.text.usart_interrupt_enable,"ax",%progbits
 1834              		.align	1
 1835              		.global	usart_interrupt_enable
 1836              		.syntax unified
 1837              		.thumb
 1838              		.thumb_func
 1840              	usart_interrupt_enable:
 1841              	.LVL127:
 1842              	.LFB167:
 909:Drivers/GD32F4xx_standard_peripheral/Source/gd32f4xx_usart.c **** 
 910:Drivers/GD32F4xx_standard_peripheral/Source/gd32f4xx_usart.c **** /*!
 911:Drivers/GD32F4xx_standard_peripheral/Source/gd32f4xx_usart.c ****     \brief    enable USART interrupt
 912:Drivers/GD32F4xx_standard_peripheral/Source/gd32f4xx_usart.c ****     \param[in]  usart_periph: USARTx(x=0,1,2,5)/UARTx(x=3,4,6,7)
 913:Drivers/GD32F4xx_standard_peripheral/Source/gd32f4xx_usart.c ****     \param[in]  interrupt: USART interrupts, refer to usart_interrupt_enum
 914:Drivers/GD32F4xx_standard_peripheral/Source/gd32f4xx_usart.c ****                 only one parameter can be selected which is shown as below:
 915:Drivers/GD32F4xx_standard_peripheral/Source/gd32f4xx_usart.c ****       \arg        USART_INT_PERR: parity error interrupt
 916:Drivers/GD32F4xx_standard_peripheral/Source/gd32f4xx_usart.c ****       \arg        USART_INT_TBE: transmitter buffer empty interrupt
 917:Drivers/GD32F4xx_standard_peripheral/Source/gd32f4xx_usart.c ****       \arg        USART_INT_TC: transmission complete interrupt
 918:Drivers/GD32F4xx_standard_peripheral/Source/gd32f4xx_usart.c ****       \arg        USART_INT_RBNE: read data buffer not empty interrupt and overrun error interrupt
 919:Drivers/GD32F4xx_standard_peripheral/Source/gd32f4xx_usart.c ****       \arg        USART_INT_IDLE: IDLE line detected interrupt
 920:Drivers/GD32F4xx_standard_peripheral/Source/gd32f4xx_usart.c ****       \arg        USART_INT_LBD: LIN break detected interrupt
 921:Drivers/GD32F4xx_standard_peripheral/Source/gd32f4xx_usart.c ****       \arg        USART_INT_ERR: error interrupt
 922:Drivers/GD32F4xx_standard_peripheral/Source/gd32f4xx_usart.c ****       \arg        USART_INT_CTS: CTS interrupt
 923:Drivers/GD32F4xx_standard_peripheral/Source/gd32f4xx_usart.c ****       \arg        USART_INT_RT: interrupt enable bit of receive timeout event
 924:Drivers/GD32F4xx_standard_peripheral/Source/gd32f4xx_usart.c ****       \arg        USART_INT_EB: interrupt enable bit of end of block event
 925:Drivers/GD32F4xx_standard_peripheral/Source/gd32f4xx_usart.c ****     \param[out] none
 926:Drivers/GD32F4xx_standard_peripheral/Source/gd32f4xx_usart.c ****     \retval     none
 927:Drivers/GD32F4xx_standard_peripheral/Source/gd32f4xx_usart.c **** */
 928:Drivers/GD32F4xx_standard_peripheral/Source/gd32f4xx_usart.c **** void usart_interrupt_enable(uint32_t usart_periph, usart_interrupt_enum interrupt)
 929:Drivers/GD32F4xx_standard_peripheral/Source/gd32f4xx_usart.c **** {
 1843              		.loc 1 929 1 is_stmt 1 view -0
 1844              		.cfi_startproc
 1845              		@ args = 0, pretend = 0, frame = 0
ARM GAS  /tmp/ccWYTPow.s 			page 49


 1846              		@ frame_needed = 0, uses_anonymous_args = 0
 930:Drivers/GD32F4xx_standard_peripheral/Source/gd32f4xx_usart.c ****     USART_REG_VAL(usart_periph, interrupt) |= BIT(USART_BIT_POS(interrupt));
 1847              		.loc 1 930 5 view .LVU401
 1848 0000 8A09     		lsrs	r2, r1, #6
 929:Drivers/GD32F4xx_standard_peripheral/Source/gd32f4xx_usart.c ****     USART_REG_VAL(usart_periph, interrupt) |= BIT(USART_BIT_POS(interrupt));
 1849              		.loc 1 929 1 is_stmt 0 view .LVU402
 1850 0002 10B5     		push	{r4, lr}
 1851              	.LCFI6:
 1852              		.cfi_def_cfa_offset 8
 1853              		.cfi_offset 4, -8
 1854              		.cfi_offset 14, -4
 1855              		.loc 1 930 47 view .LVU403
 1856 0004 01F01F01 		and	r1, r1, #31
 1857              	.LVL128:
 1858              		.loc 1 930 5 view .LVU404
 1859 0008 1458     		ldr	r4, [r2, r0]
 1860              		.loc 1 930 47 view .LVU405
 1861 000a 0123     		movs	r3, #1
 1862 000c 8B40     		lsls	r3, r3, r1
 1863              		.loc 1 930 44 view .LVU406
 1864 000e 2343     		orrs	r3, r3, r4
 1865 0010 1350     		str	r3, [r2, r0]
 931:Drivers/GD32F4xx_standard_peripheral/Source/gd32f4xx_usart.c **** }
 1866              		.loc 1 931 1 view .LVU407
 1867 0012 10BD     		pop	{r4, pc}
 1868              		.cfi_endproc
 1869              	.LFE167:
 1871              		.section	.text.usart_interrupt_disable,"ax",%progbits
 1872              		.align	1
 1873              		.global	usart_interrupt_disable
 1874              		.syntax unified
 1875              		.thumb
 1876              		.thumb_func
 1878              	usart_interrupt_disable:
 1879              	.LFB172:
 1880              		.cfi_startproc
 932:Drivers/GD32F4xx_standard_peripheral/Source/gd32f4xx_usart.c **** 
 933:Drivers/GD32F4xx_standard_peripheral/Source/gd32f4xx_usart.c **** /*!
 934:Drivers/GD32F4xx_standard_peripheral/Source/gd32f4xx_usart.c ****     \brief    disable USART interrupt
 935:Drivers/GD32F4xx_standard_peripheral/Source/gd32f4xx_usart.c ****     \param[in]  usart_periph: USARTx(x=0,1,2,5)/UARTx(x=3,4,6,7)
 936:Drivers/GD32F4xx_standard_peripheral/Source/gd32f4xx_usart.c ****     \param[in]  interrupt: USART interrupts, refer to usart_interrupt_enum
 937:Drivers/GD32F4xx_standard_peripheral/Source/gd32f4xx_usart.c ****                 only one parameter can be selected which is shown as below:
 938:Drivers/GD32F4xx_standard_peripheral/Source/gd32f4xx_usart.c ****       \arg        USART_INT_PERR: parity error interrupt
 939:Drivers/GD32F4xx_standard_peripheral/Source/gd32f4xx_usart.c ****       \arg        USART_INT_TBE: transmitter buffer empty interrupt
 940:Drivers/GD32F4xx_standard_peripheral/Source/gd32f4xx_usart.c ****       \arg        USART_INT_TC: transmission complete interrupt
 941:Drivers/GD32F4xx_standard_peripheral/Source/gd32f4xx_usart.c ****       \arg        USART_INT_RBNE: read data buffer not empty interrupt and overrun error interrupt
 942:Drivers/GD32F4xx_standard_peripheral/Source/gd32f4xx_usart.c ****       \arg        USART_INT_IDLE: IDLE line detected interrupt
 943:Drivers/GD32F4xx_standard_peripheral/Source/gd32f4xx_usart.c ****       \arg        USART_INT_LBD: LIN break detected interrupt
 944:Drivers/GD32F4xx_standard_peripheral/Source/gd32f4xx_usart.c ****       \arg        USART_INT_ERR: error interrupt
 945:Drivers/GD32F4xx_standard_peripheral/Source/gd32f4xx_usart.c ****       \arg        USART_INT_CTS: CTS interrupt
 946:Drivers/GD32F4xx_standard_peripheral/Source/gd32f4xx_usart.c ****       \arg        USART_INT_RT: interrupt enable bit of receive timeout event
 947:Drivers/GD32F4xx_standard_peripheral/Source/gd32f4xx_usart.c ****       \arg        USART_INT_EB: interrupt enable bit of end of block event
 948:Drivers/GD32F4xx_standard_peripheral/Source/gd32f4xx_usart.c ****     \param[out] none
 949:Drivers/GD32F4xx_standard_peripheral/Source/gd32f4xx_usart.c ****     \retval     none
 950:Drivers/GD32F4xx_standard_peripheral/Source/gd32f4xx_usart.c **** */
 951:Drivers/GD32F4xx_standard_peripheral/Source/gd32f4xx_usart.c **** void usart_interrupt_disable(uint32_t usart_periph, usart_interrupt_enum interrupt)
 1881              		.loc 1 951 6 is_stmt 1 view -0
ARM GAS  /tmp/ccWYTPow.s 			page 50


 1882              		@ args = 0, pretend = 0, frame = 0
 1883              		@ frame_needed = 0, uses_anonymous_args = 0
 1884              		@ link register save eliminated.
 1885 0000 FFF7FEBF 		b	usart_flag_clear
 1886              		.cfi_endproc
 1887              	.LFE172:
 1889              		.section	.text.usart_interrupt_flag_get,"ax",%progbits
 1890              		.align	1
 1891              		.global	usart_interrupt_flag_get
 1892              		.syntax unified
 1893              		.thumb
 1894              		.thumb_func
 1896              	usart_interrupt_flag_get:
 1897              	.LVL129:
 1898              	.LFB169:
 952:Drivers/GD32F4xx_standard_peripheral/Source/gd32f4xx_usart.c **** {
 953:Drivers/GD32F4xx_standard_peripheral/Source/gd32f4xx_usart.c ****     USART_REG_VAL(usart_periph, interrupt) &= ~BIT(USART_BIT_POS(interrupt));
 954:Drivers/GD32F4xx_standard_peripheral/Source/gd32f4xx_usart.c **** }
 955:Drivers/GD32F4xx_standard_peripheral/Source/gd32f4xx_usart.c **** 
 956:Drivers/GD32F4xx_standard_peripheral/Source/gd32f4xx_usart.c **** /*!
 957:Drivers/GD32F4xx_standard_peripheral/Source/gd32f4xx_usart.c ****     \brief    get USART interrupt and flag status
 958:Drivers/GD32F4xx_standard_peripheral/Source/gd32f4xx_usart.c ****     \param[in]  usart_periph: USARTx(x=0,1,2,5)/UARTx(x=3,4,6,7)
 959:Drivers/GD32F4xx_standard_peripheral/Source/gd32f4xx_usart.c ****     \param[in]  int_flag: USART interrupt flags, refer to usart_interrupt_flag_enum
 960:Drivers/GD32F4xx_standard_peripheral/Source/gd32f4xx_usart.c ****                 only one parameter can be selected which is shown as below:
 961:Drivers/GD32F4xx_standard_peripheral/Source/gd32f4xx_usart.c ****       \arg        USART_INT_FLAG_PERR: parity error interrupt and flag
 962:Drivers/GD32F4xx_standard_peripheral/Source/gd32f4xx_usart.c ****       \arg        USART_INT_FLAG_TBE: transmitter buffer empty interrupt and flag
 963:Drivers/GD32F4xx_standard_peripheral/Source/gd32f4xx_usart.c ****       \arg        USART_INT_FLAG_TC: transmission complete interrupt and flag
 964:Drivers/GD32F4xx_standard_peripheral/Source/gd32f4xx_usart.c ****       \arg        USART_INT_FLAG_RBNE: read data buffer not empty interrupt and flag
 965:Drivers/GD32F4xx_standard_peripheral/Source/gd32f4xx_usart.c ****       \arg        USART_INT_FLAG_RBNE_ORERR: read data buffer not empty interrupt and overrun error
 966:Drivers/GD32F4xx_standard_peripheral/Source/gd32f4xx_usart.c ****       \arg        USART_INT_FLAG_IDLE: IDLE line detected interrupt and flag
 967:Drivers/GD32F4xx_standard_peripheral/Source/gd32f4xx_usart.c ****       \arg        USART_INT_FLAG_LBD: LIN break detected interrupt and flag
 968:Drivers/GD32F4xx_standard_peripheral/Source/gd32f4xx_usart.c ****       \arg        USART_INT_FLAG_CTS: CTS interrupt and flag
 969:Drivers/GD32F4xx_standard_peripheral/Source/gd32f4xx_usart.c ****       \arg        USART_INT_FLAG_ERR_ORERR: error interrupt and overrun error
 970:Drivers/GD32F4xx_standard_peripheral/Source/gd32f4xx_usart.c ****       \arg        USART_INT_FLAG_ERR_NERR: error interrupt and noise error flag
 971:Drivers/GD32F4xx_standard_peripheral/Source/gd32f4xx_usart.c ****       \arg        USART_INT_FLAG_ERR_FERR: error interrupt and frame error flag
 972:Drivers/GD32F4xx_standard_peripheral/Source/gd32f4xx_usart.c ****       \arg        USART_INT_FLAG_EB: interrupt enable bit of end of block event and flag
 973:Drivers/GD32F4xx_standard_peripheral/Source/gd32f4xx_usart.c ****       \arg        USART_INT_FLAG_RT: interrupt enable bit of receive timeout event and flag
 974:Drivers/GD32F4xx_standard_peripheral/Source/gd32f4xx_usart.c ****     \param[out] none
 975:Drivers/GD32F4xx_standard_peripheral/Source/gd32f4xx_usart.c ****     \retval     FlagStatus: SET or RESET
 976:Drivers/GD32F4xx_standard_peripheral/Source/gd32f4xx_usart.c **** */
 977:Drivers/GD32F4xx_standard_peripheral/Source/gd32f4xx_usart.c **** FlagStatus usart_interrupt_flag_get(uint32_t usart_periph, usart_interrupt_flag_enum int_flag)
 978:Drivers/GD32F4xx_standard_peripheral/Source/gd32f4xx_usart.c **** {
 1899              		.loc 1 978 1 view -0
 1900              		.cfi_startproc
 1901              		@ args = 0, pretend = 0, frame = 0
 1902              		@ frame_needed = 0, uses_anonymous_args = 0
 979:Drivers/GD32F4xx_standard_peripheral/Source/gd32f4xx_usart.c ****     uint32_t intenable = 0U, flagstatus = 0U;
 1903              		.loc 1 979 5 view .LVU410
 980:Drivers/GD32F4xx_standard_peripheral/Source/gd32f4xx_usart.c ****     /* get the interrupt enable bit status */
 981:Drivers/GD32F4xx_standard_peripheral/Source/gd32f4xx_usart.c ****     intenable = (USART_REG_VAL(usart_periph, int_flag) & BIT(USART_BIT_POS(int_flag)));
 1904              		.loc 1 981 5 view .LVU411
 1905              		.loc 1 981 18 is_stmt 0 view .LVU412
 1906 0000 C1F38913 		ubfx	r3, r1, #6, #10
 978:Drivers/GD32F4xx_standard_peripheral/Source/gd32f4xx_usart.c ****     uint32_t intenable = 0U, flagstatus = 0U;
 1907              		.loc 1 978 1 view .LVU413
 1908 0004 10B5     		push	{r4, lr}
 1909              	.LCFI7:
ARM GAS  /tmp/ccWYTPow.s 			page 51


 1910              		.cfi_def_cfa_offset 8
 1911              		.cfi_offset 4, -8
 1912              		.cfi_offset 14, -4
 1913              		.loc 1 981 18 view .LVU414
 1914 0006 1C58     		ldr	r4, [r3, r0]
 1915              	.LVL130:
 982:Drivers/GD32F4xx_standard_peripheral/Source/gd32f4xx_usart.c ****     /* get the corresponding flag bit status */
 983:Drivers/GD32F4xx_standard_peripheral/Source/gd32f4xx_usart.c ****     flagstatus = (USART_REG_VAL2(usart_periph, int_flag) & BIT(USART_BIT_POS2(int_flag)));
 1916              		.loc 1 983 5 is_stmt 1 view .LVU415
 1917              		.loc 1 983 19 is_stmt 0 view .LVU416
 1918 0008 8B0D     		lsrs	r3, r1, #22
 1919 000a 1A58     		ldr	r2, [r3, r0]
 1920              	.LVL131:
 984:Drivers/GD32F4xx_standard_peripheral/Source/gd32f4xx_usart.c **** 
 985:Drivers/GD32F4xx_standard_peripheral/Source/gd32f4xx_usart.c ****     if((0U != flagstatus) && (0U != intenable)) {
 1921              		.loc 1 985 5 is_stmt 1 view .LVU417
 983:Drivers/GD32F4xx_standard_peripheral/Source/gd32f4xx_usart.c **** 
 1922              		.loc 1 983 60 is_stmt 0 view .LVU418
 1923 000c C1F30440 		ubfx	r0, r1, #16, #5
 1924              	.LVL132:
 983:Drivers/GD32F4xx_standard_peripheral/Source/gd32f4xx_usart.c **** 
 1925              		.loc 1 983 60 view .LVU419
 1926 0010 0123     		movs	r3, #1
 1927 0012 03FA00F0 		lsl	r0, r3, r0
 1928              		.loc 1 985 7 view .LVU420
 1929 0016 1040     		ands	r0, r0, r2
 1930 0018 06D0     		beq	.L93
 981:Drivers/GD32F4xx_standard_peripheral/Source/gd32f4xx_usart.c ****     /* get the corresponding flag bit status */
 1931              		.loc 1 981 58 discriminator 1 view .LVU421
 1932 001a 01F01F01 		and	r1, r1, #31
 1933              	.LVL133:
 981:Drivers/GD32F4xx_standard_peripheral/Source/gd32f4xx_usart.c ****     /* get the corresponding flag bit status */
 1934              		.loc 1 981 58 discriminator 1 view .LVU422
 1935 001e 8B40     		lsls	r3, r3, r1
 1936              		.loc 1 985 27 discriminator 1 view .LVU423
 1937 0020 2342     		tst	r3, r4
 1938 0022 14BF     		ite	ne
 1939 0024 0120     		movne	r0, #1
 1940 0026 0020     		moveq	r0, #0
 1941              	.LVL134:
 1942              	.L93:
 986:Drivers/GD32F4xx_standard_peripheral/Source/gd32f4xx_usart.c ****         return SET;
 987:Drivers/GD32F4xx_standard_peripheral/Source/gd32f4xx_usart.c ****     } else {
 988:Drivers/GD32F4xx_standard_peripheral/Source/gd32f4xx_usart.c ****         return RESET;
 989:Drivers/GD32F4xx_standard_peripheral/Source/gd32f4xx_usart.c ****     }
 990:Drivers/GD32F4xx_standard_peripheral/Source/gd32f4xx_usart.c **** }
 1943              		.loc 1 990 1 view .LVU424
 1944 0028 10BD     		pop	{r4, pc}
 1945              		.loc 1 990 1 view .LVU425
 1946              		.cfi_endproc
 1947              	.LFE169:
 1949              		.section	.text.usart_interrupt_flag_clear,"ax",%progbits
 1950              		.align	1
 1951              		.global	usart_interrupt_flag_clear
 1952              		.syntax unified
 1953              		.thumb
 1954              		.thumb_func
ARM GAS  /tmp/ccWYTPow.s 			page 52


 1956              	usart_interrupt_flag_clear:
 1957              	.LVL135:
 1958              	.LFB170:
 991:Drivers/GD32F4xx_standard_peripheral/Source/gd32f4xx_usart.c **** 
 992:Drivers/GD32F4xx_standard_peripheral/Source/gd32f4xx_usart.c **** /*!
 993:Drivers/GD32F4xx_standard_peripheral/Source/gd32f4xx_usart.c ****     \brief    clear USART interrupt flag in STAT0/STAT1 register
 994:Drivers/GD32F4xx_standard_peripheral/Source/gd32f4xx_usart.c ****     \param[in]  usart_periph: USARTx(x=0,1,2,5)/UARTx(x=3,4,6,7)
 995:Drivers/GD32F4xx_standard_peripheral/Source/gd32f4xx_usart.c ****     \param[in]  int_flag: USART interrupt flags, refer to usart_interrupt_flag_enum
 996:Drivers/GD32F4xx_standard_peripheral/Source/gd32f4xx_usart.c ****                 only one parameter can be selected which is shown as below:
 997:Drivers/GD32F4xx_standard_peripheral/Source/gd32f4xx_usart.c ****       \arg        USART_INT_FLAG_CTS: CTS change flag
 998:Drivers/GD32F4xx_standard_peripheral/Source/gd32f4xx_usart.c ****       \arg        USART_INT_FLAG_LBD: LIN break detected flag
 999:Drivers/GD32F4xx_standard_peripheral/Source/gd32f4xx_usart.c ****       \arg        USART_INT_FLAG_TC: transmission complete
1000:Drivers/GD32F4xx_standard_peripheral/Source/gd32f4xx_usart.c ****       \arg        USART_INT_FLAG_RBNE: read data buffer not empty
1001:Drivers/GD32F4xx_standard_peripheral/Source/gd32f4xx_usart.c ****       \arg        USART_INT_FLAG_EB: end of block flag
1002:Drivers/GD32F4xx_standard_peripheral/Source/gd32f4xx_usart.c ****       \arg        USART_INT_FLAG_RT: receiver timeout flag
1003:Drivers/GD32F4xx_standard_peripheral/Source/gd32f4xx_usart.c ****     \param[out] none
1004:Drivers/GD32F4xx_standard_peripheral/Source/gd32f4xx_usart.c ****     \retval     none
1005:Drivers/GD32F4xx_standard_peripheral/Source/gd32f4xx_usart.c **** */
1006:Drivers/GD32F4xx_standard_peripheral/Source/gd32f4xx_usart.c **** void usart_interrupt_flag_clear(uint32_t usart_periph, usart_interrupt_flag_enum int_flag)
1007:Drivers/GD32F4xx_standard_peripheral/Source/gd32f4xx_usart.c **** {
 1959              		.loc 1 1007 1 is_stmt 1 view -0
 1960              		.cfi_startproc
 1961              		@ args = 0, pretend = 0, frame = 0
 1962              		@ frame_needed = 0, uses_anonymous_args = 0
1008:Drivers/GD32F4xx_standard_peripheral/Source/gd32f4xx_usart.c ****     USART_REG_VAL2(usart_periph, int_flag) &= ~BIT(USART_BIT_POS2(int_flag));
 1963              		.loc 1 1008 5 view .LVU427
1007:Drivers/GD32F4xx_standard_peripheral/Source/gd32f4xx_usart.c ****     USART_REG_VAL2(usart_periph, int_flag) &= ~BIT(USART_BIT_POS2(int_flag));
 1964              		.loc 1 1007 1 is_stmt 0 view .LVU428
 1965 0000 10B5     		push	{r4, lr}
 1966              	.LCFI8:
 1967              		.cfi_def_cfa_offset 8
 1968              		.cfi_offset 4, -8
 1969              		.cfi_offset 14, -4
 1970              		.loc 1 1008 5 view .LVU429
 1971 0002 8C0D     		lsrs	r4, r1, #22
 1972              		.loc 1 1008 48 view .LVU430
 1973 0004 0122     		movs	r2, #1
 1974              		.loc 1 1008 5 view .LVU431
 1975 0006 2358     		ldr	r3, [r4, r0]
 1976              		.loc 1 1008 48 view .LVU432
 1977 0008 C1F30441 		ubfx	r1, r1, #16, #5
 1978              	.LVL136:
 1979              		.loc 1 1008 48 view .LVU433
 1980 000c 8A40     		lsls	r2, r2, r1
 1981              		.loc 1 1008 44 view .LVU434
 1982 000e 23EA0203 		bic	r3, r3, r2
 1983 0012 2350     		str	r3, [r4, r0]
1009:Drivers/GD32F4xx_standard_peripheral/Source/gd32f4xx_usart.c **** }
 1984              		.loc 1 1009 1 view .LVU435
 1985 0014 10BD     		pop	{r4, pc}
 1986              		.cfi_endproc
 1987              	.LFE170:
 1989              		.text
 1990              	.Letext0:
 1991              		.file 2 "/usr/arm-none-eabi/include/machine/_default_types.h"
 1992              		.file 3 "/usr/arm-none-eabi/include/sys/_stdint.h"
 1993              		.file 4 "Drivers/CMSIS/Include/gd32f4xx.h"
ARM GAS  /tmp/ccWYTPow.s 			page 53


 1994              		.file 5 "Drivers/GD32F4xx_standard_peripheral/Include/gd32f4xx_rcu.h"
 1995              		.file 6 "Drivers/GD32F4xx_standard_peripheral/Include/gd32f4xx_usart.h"
ARM GAS  /tmp/ccWYTPow.s 			page 54

