ARM GAS  /tmp/ccE59aql.s 			page 1


   1              		.cpu cortex-m4
   2              		.arch armv7e-m
   3              		.fpu softvfp
   4              		.eabi_attribute 20, 1
   5              		.eabi_attribute 21, 1
   6              		.eabi_attribute 23, 3
   7              		.eabi_attribute 24, 1
   8              		.eabi_attribute 25, 1
   9              		.eabi_attribute 26, 1
  10              		.eabi_attribute 30, 4
  11              		.eabi_attribute 34, 1
  12              		.eabi_attribute 18, 4
  13              		.file	"gd32f4xx_it.c"
  14              		.text
  15              	.Ltext0:
  16              		.cfi_sections	.debug_frame
  17              		.file 1 "Core/Src/gd32f4xx_it.c"
  18              		.section	.text.NMI_Handler,"ax",%progbits
  19              		.align	1
  20              		.global	NMI_Handler
  21              		.syntax unified
  22              		.thumb
  23              		.thumb_func
  25              	NMI_Handler:
  26              	.LFB116:
   1:Core/Src/gd32f4xx_it.c **** /*!
   2:Core/Src/gd32f4xx_it.c ****     \file    gd32f4xx_it.c
   3:Core/Src/gd32f4xx_it.c ****     \brief   interrupt service routines
   4:Core/Src/gd32f4xx_it.c **** 
   5:Core/Src/gd32f4xx_it.c ****     \version 2016-08-15, V1.0.0, firmware for GD32F4xx
   6:Core/Src/gd32f4xx_it.c ****     \version 2018-12-12, V2.0.0, firmware for GD32F4xx
   7:Core/Src/gd32f4xx_it.c ****     \version 2020-09-30, V2.1.0, firmware for GD32F4xx
   8:Core/Src/gd32f4xx_it.c ****     \version 2022-03-09, V3.0.0, firmware for GD32F4xx
   9:Core/Src/gd32f4xx_it.c **** */
  10:Core/Src/gd32f4xx_it.c **** 
  11:Core/Src/gd32f4xx_it.c **** /*
  12:Core/Src/gd32f4xx_it.c ****     Copyright (c) 2022, GigaDevice Semiconductor Inc.
  13:Core/Src/gd32f4xx_it.c **** 
  14:Core/Src/gd32f4xx_it.c ****     Redistribution and use in source and binary forms, with or without modification,
  15:Core/Src/gd32f4xx_it.c **** are permitted provided that the following conditions are met:
  16:Core/Src/gd32f4xx_it.c **** 
  17:Core/Src/gd32f4xx_it.c ****     1. Redistributions of source code must retain the above copyright notice, this
  18:Core/Src/gd32f4xx_it.c ****        list of conditions and the following disclaimer.
  19:Core/Src/gd32f4xx_it.c ****     2. Redistributions in binary form must reproduce the above copyright notice,
  20:Core/Src/gd32f4xx_it.c ****        this list of conditions and the following disclaimer in the documentation
  21:Core/Src/gd32f4xx_it.c ****        and/or other materials provided with the distribution.
  22:Core/Src/gd32f4xx_it.c ****     3. Neither the name of the copyright holder nor the names of its contributors
  23:Core/Src/gd32f4xx_it.c ****        may be used to endorse or promote products derived from this software without
  24:Core/Src/gd32f4xx_it.c ****        specific prior written permission.
  25:Core/Src/gd32f4xx_it.c **** 
  26:Core/Src/gd32f4xx_it.c ****     THIS SOFTWARE IS PROVIDED BY THE COPYRIGHT HOLDERS AND CONTRIBUTORS "AS IS"
  27:Core/Src/gd32f4xx_it.c **** AND ANY EXPRESS OR IMPLIED WARRANTIES, INCLUDING, BUT NOT LIMITED TO, THE IMPLIED
  28:Core/Src/gd32f4xx_it.c **** WARRANTIES OF MERCHANTABILITY AND FITNESS FOR A PARTICULAR PURPOSE ARE DISCLAIMED.
  29:Core/Src/gd32f4xx_it.c **** IN NO EVENT SHALL THE COPYRIGHT HOLDER OR CONTRIBUTORS BE LIABLE FOR ANY DIRECT,
  30:Core/Src/gd32f4xx_it.c **** INDIRECT, INCIDENTAL, SPECIAL, EXEMPLARY, OR CONSEQUENTIAL DAMAGES (INCLUDING, BUT
  31:Core/Src/gd32f4xx_it.c **** NOT LIMITED TO, PROCUREMENT OF SUBSTITUTE GOODS OR SERVICES; LOSS OF USE, DATA, OR
  32:Core/Src/gd32f4xx_it.c **** PROFITS; OR BUSINESS INTERRUPTION) HOWEVER CAUSED AND ON ANY THEORY OF LIABILITY,
ARM GAS  /tmp/ccE59aql.s 			page 2


  33:Core/Src/gd32f4xx_it.c **** WHETHER IN CONTRACT, STRICT LIABILITY, OR TORT (INCLUDING NEGLIGENCE OR OTHERWISE)
  34:Core/Src/gd32f4xx_it.c **** ARISING IN ANY WAY OUT OF THE USE OF THIS SOFTWARE, EVEN IF ADVISED OF THE POSSIBILITY
  35:Core/Src/gd32f4xx_it.c **** OF SUCH DAMAGE.
  36:Core/Src/gd32f4xx_it.c **** */
  37:Core/Src/gd32f4xx_it.c **** 
  38:Core/Src/gd32f4xx_it.c **** #include "gd32f4xx_it.h"
  39:Core/Src/gd32f4xx_it.c **** #include "main.h"
  40:Core/Src/gd32f4xx_it.c **** #include "systick.h"
  41:Core/Src/gd32f4xx_it.c **** 
  42:Core/Src/gd32f4xx_it.c **** /*!
  43:Core/Src/gd32f4xx_it.c ****     \brief    this function handles NMI exception
  44:Core/Src/gd32f4xx_it.c ****     \param[in]  none
  45:Core/Src/gd32f4xx_it.c ****     \param[out] none
  46:Core/Src/gd32f4xx_it.c ****     \retval     none
  47:Core/Src/gd32f4xx_it.c **** */
  48:Core/Src/gd32f4xx_it.c **** void NMI_Handler(void)
  49:Core/Src/gd32f4xx_it.c **** {
  27              		.loc 1 49 1 view -0
  28              		.cfi_startproc
  29              		@ args = 0, pretend = 0, frame = 0
  30              		@ frame_needed = 0, uses_anonymous_args = 0
  31              		@ link register save eliminated.
  50:Core/Src/gd32f4xx_it.c **** }
  32              		.loc 1 50 1 view .LVU1
  33 0000 7047     		bx	lr
  34              		.cfi_endproc
  35              	.LFE116:
  37              		.section	.text.HardFault_Handler,"ax",%progbits
  38              		.align	1
  39              		.global	HardFault_Handler
  40              		.syntax unified
  41              		.thumb
  42              		.thumb_func
  44              	HardFault_Handler:
  45              	.LFB117:
  51:Core/Src/gd32f4xx_it.c **** 
  52:Core/Src/gd32f4xx_it.c **** /*!
  53:Core/Src/gd32f4xx_it.c ****     \brief    this function handles HardFault exception
  54:Core/Src/gd32f4xx_it.c ****     \param[in]  none
  55:Core/Src/gd32f4xx_it.c ****     \param[out] none
  56:Core/Src/gd32f4xx_it.c ****     \retval     none
  57:Core/Src/gd32f4xx_it.c **** */
  58:Core/Src/gd32f4xx_it.c **** void HardFault_Handler(void)
  59:Core/Src/gd32f4xx_it.c **** {
  46              		.loc 1 59 1 view -0
  47              		.cfi_startproc
  48              		@ Volatile: function does not return.
  49              		@ args = 0, pretend = 0, frame = 0
  50              		@ frame_needed = 0, uses_anonymous_args = 0
  51              		@ link register save eliminated.
  52              	.L3:
  60:Core/Src/gd32f4xx_it.c ****     /* if Hard Fault exception occurs, go to infinite loop */
  61:Core/Src/gd32f4xx_it.c ****     while(1) {
  53              		.loc 1 61 5 discriminator 1 view .LVU3
  62:Core/Src/gd32f4xx_it.c ****     }
  54              		.loc 1 62 5 discriminator 1 view .LVU4
  61:Core/Src/gd32f4xx_it.c ****     }
ARM GAS  /tmp/ccE59aql.s 			page 3


  55              		.loc 1 61 10 discriminator 1 view .LVU5
  56 0000 FEE7     		b	.L3
  57              		.cfi_endproc
  58              	.LFE117:
  60              		.section	.text.MemManage_Handler,"ax",%progbits
  61              		.align	1
  62              		.global	MemManage_Handler
  63              		.syntax unified
  64              		.thumb
  65              		.thumb_func
  67              	MemManage_Handler:
  68              	.LFB118:
  63:Core/Src/gd32f4xx_it.c **** }
  64:Core/Src/gd32f4xx_it.c **** 
  65:Core/Src/gd32f4xx_it.c **** /*!
  66:Core/Src/gd32f4xx_it.c ****     \brief    this function handles MemManage exception
  67:Core/Src/gd32f4xx_it.c ****     \param[in]  none
  68:Core/Src/gd32f4xx_it.c ****     \param[out] none
  69:Core/Src/gd32f4xx_it.c ****     \retval     none
  70:Core/Src/gd32f4xx_it.c **** */
  71:Core/Src/gd32f4xx_it.c **** void MemManage_Handler(void)
  72:Core/Src/gd32f4xx_it.c **** {
  69              		.loc 1 72 1 view -0
  70              		.cfi_startproc
  71              		@ Volatile: function does not return.
  72              		@ args = 0, pretend = 0, frame = 0
  73              		@ frame_needed = 0, uses_anonymous_args = 0
  74              		@ link register save eliminated.
  75              	.L5:
  73:Core/Src/gd32f4xx_it.c ****     /* if Memory Manage exception occurs, go to infinite loop */
  74:Core/Src/gd32f4xx_it.c ****     while(1) {
  76              		.loc 1 74 5 discriminator 1 view .LVU7
  75:Core/Src/gd32f4xx_it.c ****     }
  77              		.loc 1 75 5 discriminator 1 view .LVU8
  74:Core/Src/gd32f4xx_it.c ****     }
  78              		.loc 1 74 10 discriminator 1 view .LVU9
  79 0000 FEE7     		b	.L5
  80              		.cfi_endproc
  81              	.LFE118:
  83              		.section	.text.BusFault_Handler,"ax",%progbits
  84              		.align	1
  85              		.global	BusFault_Handler
  86              		.syntax unified
  87              		.thumb
  88              		.thumb_func
  90              	BusFault_Handler:
  91              	.LFB119:
  76:Core/Src/gd32f4xx_it.c **** }
  77:Core/Src/gd32f4xx_it.c **** 
  78:Core/Src/gd32f4xx_it.c **** /*!
  79:Core/Src/gd32f4xx_it.c ****     \brief    this function handles BusFault exception
  80:Core/Src/gd32f4xx_it.c ****     \param[in]  none
  81:Core/Src/gd32f4xx_it.c ****     \param[out] none
  82:Core/Src/gd32f4xx_it.c ****     \retval     none
  83:Core/Src/gd32f4xx_it.c **** */
  84:Core/Src/gd32f4xx_it.c **** void BusFault_Handler(void)
  85:Core/Src/gd32f4xx_it.c **** {
ARM GAS  /tmp/ccE59aql.s 			page 4


  92              		.loc 1 85 1 view -0
  93              		.cfi_startproc
  94              		@ Volatile: function does not return.
  95              		@ args = 0, pretend = 0, frame = 0
  96              		@ frame_needed = 0, uses_anonymous_args = 0
  97              		@ link register save eliminated.
  98              	.L7:
  86:Core/Src/gd32f4xx_it.c ****     /* if Bus Fault exception occurs, go to infinite loop */
  87:Core/Src/gd32f4xx_it.c ****     while(1) {
  99              		.loc 1 87 5 discriminator 1 view .LVU11
  88:Core/Src/gd32f4xx_it.c ****     }
 100              		.loc 1 88 5 discriminator 1 view .LVU12
  87:Core/Src/gd32f4xx_it.c ****     }
 101              		.loc 1 87 10 discriminator 1 view .LVU13
 102 0000 FEE7     		b	.L7
 103              		.cfi_endproc
 104              	.LFE119:
 106              		.section	.text.UsageFault_Handler,"ax",%progbits
 107              		.align	1
 108              		.global	UsageFault_Handler
 109              		.syntax unified
 110              		.thumb
 111              		.thumb_func
 113              	UsageFault_Handler:
 114              	.LFB120:
  89:Core/Src/gd32f4xx_it.c **** }
  90:Core/Src/gd32f4xx_it.c **** 
  91:Core/Src/gd32f4xx_it.c **** /*!
  92:Core/Src/gd32f4xx_it.c ****     \brief    this function handles UsageFault exception
  93:Core/Src/gd32f4xx_it.c ****     \param[in]  none
  94:Core/Src/gd32f4xx_it.c ****     \param[out] none
  95:Core/Src/gd32f4xx_it.c ****     \retval     none
  96:Core/Src/gd32f4xx_it.c **** */
  97:Core/Src/gd32f4xx_it.c **** void UsageFault_Handler(void)
  98:Core/Src/gd32f4xx_it.c **** {
 115              		.loc 1 98 1 view -0
 116              		.cfi_startproc
 117              		@ Volatile: function does not return.
 118              		@ args = 0, pretend = 0, frame = 0
 119              		@ frame_needed = 0, uses_anonymous_args = 0
 120              		@ link register save eliminated.
 121              	.L9:
  99:Core/Src/gd32f4xx_it.c ****     /* if Usage Fault exception occurs, go to infinite loop */
 100:Core/Src/gd32f4xx_it.c ****     while(1) {
 122              		.loc 1 100 5 discriminator 1 view .LVU15
 101:Core/Src/gd32f4xx_it.c ****     }
 123              		.loc 1 101 5 discriminator 1 view .LVU16
 100:Core/Src/gd32f4xx_it.c ****     }
 124              		.loc 1 100 10 discriminator 1 view .LVU17
 125 0000 FEE7     		b	.L9
 126              		.cfi_endproc
 127              	.LFE120:
 129              		.section	.text.SVC_Handler,"ax",%progbits
 130              		.align	1
 131              		.global	SVC_Handler
 132              		.syntax unified
 133              		.thumb
ARM GAS  /tmp/ccE59aql.s 			page 5


 134              		.thumb_func
 136              	SVC_Handler:
 137              	.LFB126:
 138              		.cfi_startproc
 102:Core/Src/gd32f4xx_it.c **** }
 103:Core/Src/gd32f4xx_it.c **** 
 104:Core/Src/gd32f4xx_it.c **** /*!
 105:Core/Src/gd32f4xx_it.c ****     \brief    this function handles SVC exception
 106:Core/Src/gd32f4xx_it.c ****     \param[in]  none
 107:Core/Src/gd32f4xx_it.c ****     \param[out] none
 108:Core/Src/gd32f4xx_it.c ****     \retval     none
 109:Core/Src/gd32f4xx_it.c **** */
 110:Core/Src/gd32f4xx_it.c **** void SVC_Handler(void)
 139              		.loc 1 110 6 view -0
 140              		@ args = 0, pretend = 0, frame = 0
 141              		@ frame_needed = 0, uses_anonymous_args = 0
 142              		@ link register save eliminated.
 143 0000 7047     		bx	lr
 144              		.cfi_endproc
 145              	.LFE126:
 147              		.section	.text.DebugMon_Handler,"ax",%progbits
 148              		.align	1
 149              		.global	DebugMon_Handler
 150              		.syntax unified
 151              		.thumb
 152              		.thumb_func
 154              	DebugMon_Handler:
 155              	.LFB128:
 156              		.cfi_startproc
 111:Core/Src/gd32f4xx_it.c **** {
 112:Core/Src/gd32f4xx_it.c **** }
 113:Core/Src/gd32f4xx_it.c **** 
 114:Core/Src/gd32f4xx_it.c **** /*!
 115:Core/Src/gd32f4xx_it.c ****     \brief    this function handles DebugMon exception
 116:Core/Src/gd32f4xx_it.c ****     \param[in]  none
 117:Core/Src/gd32f4xx_it.c ****     \param[out] none
 118:Core/Src/gd32f4xx_it.c ****     \retval     none
 119:Core/Src/gd32f4xx_it.c **** */
 120:Core/Src/gd32f4xx_it.c **** void DebugMon_Handler(void)
 157              		.loc 1 120 6 view -0
 158              		@ args = 0, pretend = 0, frame = 0
 159              		@ frame_needed = 0, uses_anonymous_args = 0
 160              		@ link register save eliminated.
 161 0000 7047     		bx	lr
 162              		.cfi_endproc
 163              	.LFE128:
 165              		.section	.text.PendSV_Handler,"ax",%progbits
 166              		.align	1
 167              		.global	PendSV_Handler
 168              		.syntax unified
 169              		.thumb
 170              		.thumb_func
 172              	PendSV_Handler:
 173              	.LFB130:
 174              		.cfi_startproc
 121:Core/Src/gd32f4xx_it.c **** {
 122:Core/Src/gd32f4xx_it.c **** }
ARM GAS  /tmp/ccE59aql.s 			page 6


 123:Core/Src/gd32f4xx_it.c **** 
 124:Core/Src/gd32f4xx_it.c **** /*!
 125:Core/Src/gd32f4xx_it.c ****     \brief    this function handles PendSV exception
 126:Core/Src/gd32f4xx_it.c ****     \param[in]  none
 127:Core/Src/gd32f4xx_it.c ****     \param[out] none
 128:Core/Src/gd32f4xx_it.c ****     \retval     none
 129:Core/Src/gd32f4xx_it.c **** */
 130:Core/Src/gd32f4xx_it.c **** void PendSV_Handler(void)
 175              		.loc 1 130 6 view -0
 176              		@ args = 0, pretend = 0, frame = 0
 177              		@ frame_needed = 0, uses_anonymous_args = 0
 178              		@ link register save eliminated.
 179 0000 7047     		bx	lr
 180              		.cfi_endproc
 181              	.LFE130:
 183              		.section	.text.SysTick_Handler,"ax",%progbits
 184              		.align	1
 185              		.global	SysTick_Handler
 186              		.syntax unified
 187              		.thumb
 188              		.thumb_func
 190              	SysTick_Handler:
 191              	.LFB124:
 131:Core/Src/gd32f4xx_it.c **** {
 132:Core/Src/gd32f4xx_it.c **** }
 133:Core/Src/gd32f4xx_it.c **** 
 134:Core/Src/gd32f4xx_it.c **** /*!
 135:Core/Src/gd32f4xx_it.c ****     \brief    this function handles SysTick exception
 136:Core/Src/gd32f4xx_it.c ****     \param[in]  none
 137:Core/Src/gd32f4xx_it.c ****     \param[out] none
 138:Core/Src/gd32f4xx_it.c ****     \retval     none
 139:Core/Src/gd32f4xx_it.c **** */
 140:Core/Src/gd32f4xx_it.c **** void SysTick_Handler(void)
 141:Core/Src/gd32f4xx_it.c **** {
 192              		.loc 1 141 1 view -0
 193              		.cfi_startproc
 194              		@ args = 0, pretend = 0, frame = 0
 195              		@ frame_needed = 0, uses_anonymous_args = 0
 196              		@ link register save eliminated.
 142:Core/Src/gd32f4xx_it.c ****     delay_decrement();
 197              		.loc 1 142 5 view .LVU22
 198 0000 FFF7FEBF 		b	delay_decrement
 199              	.LVL0:
 200              		.cfi_endproc
 201              	.LFE124:
 203              		.text
 204              	.Letext0:
 205              		.file 2 "Core/Inc/systick.h"
ARM GAS  /tmp/ccE59aql.s 			page 7

