ARM GAS  /tmp/cciAdvRc.s 			page 1


   1              		.cpu cortex-m4
   2              		.arch armv7e-m
   3              		.fpu softvfp
   4              		.eabi_attribute 20, 1
   5              		.eabi_attribute 21, 1
   6              		.eabi_attribute 23, 3
   7              		.eabi_attribute 24, 1
   8              		.eabi_attribute 25, 1
   9              		.eabi_attribute 26, 1
  10              		.eabi_attribute 30, 4
  11              		.eabi_attribute 34, 1
  12              		.eabi_attribute 18, 4
  13              		.file	"main.c"
  14              		.text
  15              	.Ltext0:
  16              		.cfi_sections	.debug_frame
  17              		.file 1 "Core/Src/main.c"
  18              		.section	.rodata.main.str1.1,"aMS",%progbits,1
  19              	.LC0:
  20 0000 41636365 		.ascii	"Accel_X_RAW: %lf\015\012\000"
  20      6C5F585F 
  20      5241573A 
  20      20256C66 
  20      0D0A00
  21              	.LC1:
  22 0013 41636365 		.ascii	"Accel_Y_RAW: %lf\015\012\000"
  22      6C5F595F 
  22      5241573A 
  22      20256C66 
  22      0D0A00
  23              	.LC2:
  24 0026 41636365 		.ascii	"Accel_Z_RAW: %lf\015\012\000"
  24      6C5F5A5F 
  24      5241573A 
  24      20256C66 
  24      0D0A00
  25              		.section	.text.startup.main,"ax",%progbits
  26              		.align	1
  27              		.global	main
  28              		.syntax unified
  29              		.thumb
  30              		.thumb_func
  32              	main:
  33              	.LFB119:
   1:Core/Src/main.c **** #include <stdio.h>
   2:Core/Src/main.c **** #include "main.h"
   3:Core/Src/main.c **** 
   4:Core/Src/main.c **** 
   5:Core/Src/main.c **** int main(void)
   6:Core/Src/main.c **** {
  34              		.loc 1 6 1 view -0
  35              		.cfi_startproc
  36              		@ Volatile: function does not return.
  37              		@ args = 0, pretend = 0, frame = 88
  38              		@ frame_needed = 0, uses_anonymous_args = 0
   7:Core/Src/main.c ****     systick_config();
  39              		.loc 1 7 5 view .LVU1
ARM GAS  /tmp/cciAdvRc.s 			page 2


   6:Core/Src/main.c ****     systick_config();
  40              		.loc 1 6 1 is_stmt 0 view .LVU2
  41 0000 00B5     		push	{lr}
  42              	.LCFI0:
  43              		.cfi_def_cfa_offset 4
  44              		.cfi_offset 14, -4
  45 0002 97B0     		sub	sp, sp, #92
  46              	.LCFI1:
  47              		.cfi_def_cfa_offset 96
  48              		.loc 1 7 5 view .LVU3
  49 0004 FFF7FEFF 		bl	systick_config
  50              	.LVL0:
   8:Core/Src/main.c ****     usart_gpio_config();
  51              		.loc 1 8 5 is_stmt 1 view .LVU4
  52 0008 FFF7FEFF 		bl	usart_gpio_config
  53              	.LVL1:
   9:Core/Src/main.c ****     mpu6050_init();
  54              		.loc 1 9 5 view .LVU5
  55 000c FFF7FEFF 		bl	mpu6050_init
  56              	.LVL2:
  10:Core/Src/main.c **** 
  11:Core/Src/main.c ****     MPU6050_t accel_data;
  12:Core/Src/main.c **** 
  13:Core/Src/main.c ****     while (1) {
  14:Core/Src/main.c ****         mpu6050_read_accel(&accel_data);
  15:Core/Src/main.c **** 
  16:Core/Src/main.c ****         printf("Accel_X_RAW: %lf\r\n", accel_data.Accel_X_RAW);
  57              		.loc 1 16 9 is_stmt 0 view .LVU6
  58 0010 0C4E     		ldr	r6, .L3
  17:Core/Src/main.c ****         printf("Accel_Y_RAW: %lf\r\n", accel_data.Accel_Y_RAW);
  59              		.loc 1 17 9 view .LVU7
  60 0012 0D4D     		ldr	r5, .L3+4
  18:Core/Src/main.c ****         printf("Accel_Z_RAW: %lf\r\n", accel_data.Accel_Z_RAW);
  61              		.loc 1 18 9 view .LVU8
  62 0014 0D4C     		ldr	r4, .L3+8
  63              	.L2:
  11:Core/Src/main.c **** 
  64              		.loc 1 11 5 is_stmt 1 discriminator 1 view .LVU9
  13:Core/Src/main.c ****         mpu6050_read_accel(&accel_data);
  65              		.loc 1 13 5 discriminator 1 view .LVU10
  14:Core/Src/main.c **** 
  66              		.loc 1 14 9 discriminator 1 view .LVU11
  67 0016 6846     		mov	r0, sp
  68 0018 FFF7FEFF 		bl	mpu6050_read_accel
  69              	.LVL3:
  16:Core/Src/main.c ****         printf("Accel_Y_RAW: %lf\r\n", accel_data.Accel_Y_RAW);
  70              		.loc 1 16 9 discriminator 1 view .LVU12
  71 001c BDF80010 		ldrh	r1, [sp]
  72 0020 3046     		mov	r0, r6
  73 0022 FFF7FEFF 		bl	printf
  74              	.LVL4:
  17:Core/Src/main.c ****         printf("Accel_Z_RAW: %lf\r\n", accel_data.Accel_Z_RAW);
  75              		.loc 1 17 9 discriminator 1 view .LVU13
  76 0026 BDF80210 		ldrh	r1, [sp, #2]
  77 002a 2846     		mov	r0, r5
  78 002c FFF7FEFF 		bl	printf
  79              	.LVL5:
ARM GAS  /tmp/cciAdvRc.s 			page 3


  80              		.loc 1 18 9 discriminator 1 view .LVU14
  81 0030 BDF80410 		ldrh	r1, [sp, #4]
  82 0034 2046     		mov	r0, r4
  83 0036 FFF7FEFF 		bl	printf
  84              	.LVL6:
  19:Core/Src/main.c **** 
  20:Core/Src/main.c ****         delay_1ms(500);
  85              		.loc 1 20 9 discriminator 1 view .LVU15
  86 003a 4FF4FA70 		mov	r0, #500
  87 003e FFF7FEFF 		bl	delay_1ms
  88              	.LVL7:
  13:Core/Src/main.c ****         mpu6050_read_accel(&accel_data);
  89              		.loc 1 13 11 discriminator 1 view .LVU16
  90 0042 E8E7     		b	.L2
  91              	.L4:
  92              		.align	2
  93              	.L3:
  94 0044 00000000 		.word	.LC0
  95 0048 13000000 		.word	.LC1
  96 004c 26000000 		.word	.LC2
  97              		.cfi_endproc
  98              	.LFE119:
 100              		.text
 101              	.Letext0:
 102              		.file 2 "/usr/arm-none-eabi/include/machine/_default_types.h"
 103              		.file 3 "/usr/arm-none-eabi/include/sys/_stdint.h"
 104              		.file 4 "Hardware/Inc/bsp_mpu6050.h"
 105              		.file 5 "Core/Inc/systick.h"
 106              		.file 6 "Core/Inc/bsp_usart.h"
 107              		.file 7 "/usr/arm-none-eabi/include/stdio.h"
ARM GAS  /tmp/cciAdvRc.s 			page 4


DEFINED SYMBOLS
                            *ABS*:0000000000000000 main.c
     /tmp/cciAdvRc.s:26     .text.startup.main:0000000000000000 $t
     /tmp/cciAdvRc.s:32     .text.startup.main:0000000000000000 main
     /tmp/cciAdvRc.s:94     .text.startup.main:0000000000000044 $d

UNDEFINED SYMBOLS
systick_config
usart_gpio_config
mpu6050_init
mpu6050_read_accel
printf
delay_1ms
